(lp0
(lp1
S't_set/H6VG.jpg'
p2
aS'H6VG'
p3
aa(lp4
S't_set/zmbx.jpg'
p5
aS'zmbx'
p6
aa(lp7
S't_set/WJ9V--793875211.jpg'
p8
aS'WJ9V'
p9
aa(lp10
S't_set/WN9V.jpg'
p11
aS'WN9V'
p12
aa(lp13
S't_set/VRG4.jpg'
p14
aS'VRG4'
p15
aa(lp16
S't_set/WM8X--1006046102.jpg'
p17
aS'WM8X'
p18
aa(lp19
S't_set/KFWT--90814337.jpg'
p20
aS'KFWT'
p21
aa(lp22
S't_set/B2PJ--566550678.jpg'
p23
aS'B2PJ'
p24
aa(lp25
S't_set/2ncz.jpg'
p26
aS'2ncz'
p27
aa(lp28
S't_set/EBXN--948411505.jpg'
p29
aS'EBXN'
p30
aa(lp31
S't_set/NH5U.jpg'
p32
aS'NH5U'
p33
aa(lp34
S't_set/uf7t.jpg'
p35
aS'uf7t'
p36
aa(lp37
S't_set/xtf6.jpg'
p38
aS'xtf6'
p39
aa(lp40
S't_set/b2pd--502107660.jpg'
p41
aS'b2pd'
p42
aa(lp43
S't_set/SD4R--137968570.jpg'
p44
aS'SD4R'
p45
aa(lp46
S't_set/M8XK--389859479.jpg'
p47
aS'M8XK'
p48
aa(lp49
S't_set/YPAZ--643134603.jpg'
p50
aS'YPAZ'
p51
aa(lp52
S't_set/5SGC--640824680.jpg'
p53
aS'5SGC'
p54
aa(lp55
S't_set/NCYQ.jpg'
p56
aS'NCYQ'
p57
aa(lp58
S't_set/3sda--563016775.jpg'
p59
aS'3sda'
p60
aa(lp61
S't_set/E5RN.jpg'
p62
aS'E5RN'
p63
aa(lp64
S't_set/C3QE.jpg'
p65
aS'C3QE'
p66
aa(lp67
S't_set/NCZQ--483986281.jpg'
p68
aS'NCZQ'
p69
aa(lp70
S't_set/ZNHY.jpg'
p71
aS'ZNHY'
p72
aa(lp73
S't_set/J6VG.jpg'
p74
aS'J6VG'
p75
aa(lp76
S't_set/CYQK.jpg'
p77
aS'CYQK'
p78
aa(lp79
S't_set/5RMB.jpg'
p80
aS'5RMB'
p81
aa(lp82
S't_set/YKFX--139243603.jpg'
p83
aS'YKFX'
p84
aa(lp85
S't_set/WMGX--1043876509.jpg'
p86
aS'WMGX'
p87
aa(lp88
S't_set/AZNH--62275525.jpg'
p89
aS'AZNH'
p90
aa(lp91
S't_set/wmhy.jpg'
p92
aS'wmhy'
p93
aa(lp94
S't_set/thev--309067578.jpg'
p95
aS'thev'
p96
aa(lp97
S't_set/5snc--749074653.jpg'
p98
aS'5snc'
p99
aa(lp100
S't_set/8XKF--88482021.jpg'
p101
aS'8XKF'
p102
aa(lp103
S't_set/AWJ9--32476846.jpg'
p104
aS'AWJ9'
p105
aa(lp106
S't_set/XJ9W--1053152802.jpg'
p107
aS'XJ9W'
p108
aa(lp109
S't_set/6vhd.jpg'
p110
aS'6vhd'
p111
aa(lp112
S't_set/K8UJ--1026398110.jpg'
p113
aS'K8UJ'
p114
aa(lp115
S't_set/evrd--19174132.jpg'
p116
aS'evrd'
p117
aa(lp118
S't_set/TE6S.jpg'
p119
aS'TE6S'
p120
aa(lp121
S't_set/HYVK--652925597.jpg'
p122
aS'HYVK'
p123
aa(lp124
S't_set/HD2R--235730024.jpg'
p125
aS'HD2R'
p126
aa(lp127
S't_set/tj6v.jpg'
p128
aS'tj6v'
p129
aa(lp130
S't_set/7WJ9.jpg'
p131
aS'7WJ9'
p132
aa(lp133
S't_set/RF4Q--873646551.jpg'
p134
aS'RF4Q'
p135
aa(lp136
S't_set/F3SE.jpg'
p137
aS'F3SE'
p138
aa(lp139
S't_set/MBYP--417861973.jpg'
p140
aS'MBYP'
p141
aa(lp142
S't_set/SG5R--124624513.jpg'
p143
aS'SG5R'
p144
aa(lp145
S't_set/SD5R.jpg'
p146
aS'SD5R'
p147
aa(lp148
S't_set/BXNA--987376207.jpg'
p149
aS'BXNA'
p150
aa(lp151
S't_set/pkaw.jpg'
p152
aS'pkaw'
p153
aa(lp154
S't_set/qb3p.jpg'
p155
aS'qb3p'
p156
aa(lp157
S't_set/qebs.jpg'
p158
aS'qebs'
p159
aa(lp160
S't_set/8vkf.jpg'
p161
aS'8vkf'
p162
aa(lp163
S't_set/RCZQ--76811708.jpg'
p164
aS'RCZQ'
p165
aa(lp166
S't_set/G7UJ--1083135452.jpg'
p167
aS'G7UJ'
p168
aa(lp169
S't_set/YKBX--64856733.jpg'
p170
aS'YKBX'
p171
aa(lp172
S't_set/3QEA.jpg'
p173
aS'3QEA'
p174
aa(lp175
S't_set/SG5R--720284593.jpg'
p176
aS'SG5R'
p177
aa(lp178
S't_set/rf3s.jpg'
p179
aS'rf3s'
p180
aa(lp181
S't_set/RFBS--134100966.jpg'
p182
aS'RFBS'
p183
aa(lp184
S't_set/RGCY--470136324.jpg'
p185
aS'RGCY'
p186
aa(lp187
S't_set/qc3p.jpg'
p188
aS'qc3p'
p189
aa(lp190
S't_set/nhyv--740321610.jpg'
p191
aS'nhyv'
p192
aa(lp193
S't_set/2RC3--43365780.jpg'
p194
aS'2RC3'
p195
aa(lp196
S't_set/SGDU--1252552239.jpg'
p197
aS'SGDU'
p198
aa(lp199
S't_set/NAWM--1214673703.jpg'
p200
aS'NAWM'
p201
aa(lp202
S't_set/DZRC--757686559.jpg'
p203
aS'DZRC'
p204
aa(lp205
S't_set/9VMG.jpg'
p206
aS'9VMG'
p207
aa(lp208
S't_set/UG7T--1068731166.jpg'
p209
aS'UG7T'
p210
aa(lp211
S't_set/G7TQ--235540403.jpg'
p212
aS'G7TQ'
p213
aa(lp214
S't_set/NCZQ--207492158.jpg'
p215
aS'NCZQ'
p216
aa(lp217
S't_set/KAWT.jpg'
p218
aS'KAWT'
p219
aa(lp220
S't_set/EARN--133903451.jpg'
p221
aS'EARN'
p222
aa(lp223
S't_set/4QEB--756804801.jpg'
p224
aS'4QEB'
p225
aa(lp226
S't_set/wnhy--642506679.jpg'
p227
aS'wnhy'
p228
aa(lp229
S't_set/UQF3--890541868.jpg'
p230
aS'UQF3'
p231
aa(lp232
S't_set/SPDZ.jpg'
p233
aS'SPDZ'
p234
aa(lp235
S't_set/TQB2.jpg'
p236
aS'TQB2'
p237
aa(lp238
S't_set/uje3.jpg'
p239
aS'uje3'
p240
aa(lp241
S't_set/7UJE--645250909.jpg'
p242
aS'7UJE'
p243
aa(lp244
S't_set/H8VK.jpg'
p245
aS'H8VK'
p246
aa(lp247
S't_set/WTH5--167508170.jpg'
p248
aS'WTH5'
p249
aa(lp250
S't_set/WHEV.jpg'
p251
aS'WHEV'
p252
aa(lp253
S't_set/KFXT--310302348.jpg'
p254
aS'KFXT'
p255
aa(lp256
S't_set/QC3P--519327852.jpg'
p257
aS'QC3P'
p258
aa(lp259
S't_set/5uf7--122680773.jpg'
p260
aS'5uf7'
p261
aa(lp262
S't_set/pawn--493391982.jpg'
p263
aS'pawn'
p264
aa(lp265
S't_set/J7WH--255633068.jpg'
p266
aS'J7WH'
p267
aa(lp268
S't_set/DARM--302599402.jpg'
p269
aS'DARM'
p270
aa(lp271
S't_set/XNAW--2007008.jpg'
p272
aS'XNAW'
p273
aa(lp274
S't_set/8XJ9--24925494.jpg'
p275
aS'8XJ9'
p276
aa(lp277
S't_set/qkax.jpg'
p278
aS'qkax'
p279
aa(lp280
S't_set/KBXJ.jpg'
p281
aS'KBXJ'
p282
aa(lp283
S't_set/BSNA.jpg'
p284
aS'BSNA'
p285
aa(lp286
S't_set/THD2--1028097356.jpg'
p287
aS'THD2'
p288
aa(lp289
S't_set/zvm8--870135764.jpg'
p290
aS'zvm8'
p291
aa(lp292
S't_set/F6TH.jpg'
p293
aS'F6TH'
p294
aa(lp295
S't_set/E5SN--707473035.jpg'
p296
aS'E5SN'
p297
aa(lp298
S't_set/RD4Q--1082996541.jpg'
p299
aS'RD4Q'
p300
aa(lp301
S't_set/TJ6V--442207035.jpg'
p302
aS'TJ6V'
p303
aa(lp304
S't_set/B2PD--393422529.jpg'
p305
aS'B2PD'
p306
aa(lp307
S't_set/PB2N--1031537778.jpg'
p308
aS'PB2N'
p309
aa(lp310
S't_set/tpd2--70550713.jpg'
p311
aS'tpd2'
p312
aa(lp313
S't_set/qb2n.jpg'
p314
aS'qb2n'
p315
aa(lp316
S't_set/vhdu--986380784.jpg'
p317
aS'vhdu'
p318
aa(lp319
S't_set/g4tf.jpg'
p320
aS'g4tf'
p321
aa(lp322
S't_set/N9YK.jpg'
p323
aS'N9YK'
p324
aa(lp325
S't_set/H9VK.jpg'
p326
aS'H9VK'
p327
aa(lp328
S't_set/M8YK--599882946.jpg'
p329
aS'M8YK'
p330
aa(lp331
S't_set/3tea.jpg'
p332
aS'3tea'
p333
aa(lp334
S't_set/tje2--998374443.jpg'
p335
aS'tje2'
p336
aa(lp337
S't_set/E6SG.jpg'
p338
aS'E6SG'
p339
aa(lp340
S't_set/vgcu.jpg'
p341
aS'vgcu'
p342
aa(lp343
S't_set/KG4T--147583592.jpg'
p344
aS'KG4T'
p345
aa(lp346
S't_set/3SD5--387752864.jpg'
p347
aS'3SD5'
p348
aa(lp349
S't_set/H5UF.jpg'
p350
aS'H5UF'
p351
aa(lp352
S't_set/4qfb--1219499763.jpg'
p353
aS'4qfb'
p354
aa(lp355
S't_set/e2pd.jpg'
p356
aS'e2pd'
p357
aa(lp358
S't_set/GDZQ.jpg'
p359
aS'GDZQ'
p360
aa(lp361
S't_set/VSG4--866192578.jpg'
p362
aS'VSG4'
p363
aa(lp364
S't_set/g7th.jpg'
p365
aS'g7th'
p366
aa(lp367
S't_set/azmb.jpg'
p368
aS'azmb'
p369
aa(lp370
S't_set/YUG7--195162468.jpg'
p371
aS'YUG7'
p372
aa(lp373
S't_set/SDAR.jpg'
p374
aS'SDAR'
p375
aa(lp376
S't_set/B2NJ.jpg'
p377
aS'B2NJ'
p378
aa(lp379
S't_set/4rfb.jpg'
p380
aS'4rfb'
p381
aa(lp382
S't_set/8XKF--1234043551.jpg'
p383
aS'8XKF'
p384
aa(lp385
S't_set/KBXN.jpg'
p386
aS'KBXN'
p387
aa(lp388
S't_set/PDAW--1154134387.jpg'
p389
aS'PDAW'
p390
aa(lp391
S't_set/hyvg.jpg'
p392
aS'hyvg'
p393
aa(lp394
S't_set/RF3S--545546495.jpg'
p395
aS'RF3S'
p396
aa(lp397
S't_set/EBSN--346703444.jpg'
p398
aS'EBSN'
p399
aa(lp400
S't_set/VSG4--536728229.jpg'
p401
aS'VSG4'
p402
aa(lp403
S't_set/TJEV.jpg'
p404
aS'TJEV'
p405
aa(lp406
S't_set/E2RD--631610360.jpg'
p407
aS'E2RD'
p408
aa(lp409
S't_set/ypja.jpg'
p410
aS'ypja'
p411
aa(lp412
S't_set/kf4t--430154425.jpg'
p413
aS'kf4t'
p414
aa(lp415
S't_set/5RMC--1313977763.jpg'
p416
aS'5RMC'
p417
aa(lp418
S't_set/g4qf.jpg'
p419
aS'g4qf'
p420
aa(lp421
S't_set/KAWM--66123885.jpg'
p422
aS'KAWM'
p423
aa(lp424
S't_set/8UQE.jpg'
p425
aS'8UQE'
p426
aa(lp427
S't_set/AWTH--737663249.jpg'
p428
aS'AWTH'
p429
aa(lp430
S't_set/J9VK.jpg'
p431
aS'J9VK'
p432
aa(lp433
S't_set/dzqb.jpg'
p434
aS'dzqb'
p435
aa(lp436
S't_set/XN9W--154033828.jpg'
p437
aS'XN9W'
p438
aa(lp439
S't_set/UKFW--626864735.jpg'
p440
aS'UKFW'
p441
aa(lp442
S't_set/RCZQ--114805320.jpg'
p443
aS'RCZQ'
p444
aa(lp445
S't_set/xj9w--814773633.jpg'
p446
aS'xj9w'
p447
aa(lp448
S't_set/JE3S--591758971.jpg'
p449
aS'JE3S'
p450
aa(lp451
S't_set/JAWM.jpg'
p452
aS'JAWM'
p453
aa(lp454
S't_set/AXN9.jpg'
p455
aS'AXN9'
p456
aa(lp457
S't_set/KAWM--1033335362.jpg'
p458
aS'KAWM'
p459
aa(lp460
S't_set/KF3T--41014796.jpg'
p461
aS'KF3T'
p462
aa(lp463
S't_set/GDUQ.jpg'
p464
aS'GDUQ'
p465
aa(lp466
S't_set/KGXT.jpg'
p467
aS'KGXT'
p468
aa(lp469
S't_set/FBXP.jpg'
p470
aS'FBXP'
p471
aa(lp472
S't_set/vk7u.jpg'
p473
aS'vk7u'
p474
aa(lp475
S't_set/H5UG--108798442.jpg'
p476
aS'H5UG'
p477
aa(lp478
S't_set/8XKA.jpg'
p479
aS'8XKA'
p480
aa(lp481
S't_set/ypax--478673381.jpg'
p482
aS'ypax'
p483
aa(lp484
S't_set/YUJ7--171850452.jpg'
p485
aS'YUJ7'
p486
aa(lp487
S't_set/GXTJ.jpg'
p488
aS'GXTJ'
p489
aa(lp490
S't_set/qc3p--1277883909.jpg'
p491
aS'qc3p'
p492
aa(lp493
S't_set/7whe.jpg'
p494
aS'7whe'
p495
aa(lp496
S't_set/KF4T--227661270.jpg'
p497
aS'KF4T'
p498
aa(lp499
S't_set/QB3P.jpg'
p500
aS'QB3P'
p501
aa(lp502
S't_set/UF7T--941072211.jpg'
p503
aS'UF7T'
p504
aa(lp505
S't_set/THD2--334169745.jpg'
p506
aS'THD2'
p507
aa(lp508
S't_set/TPD2.jpg'
p509
aS'TPD2'
p510
aa(lp511
S't_set/EVSG.jpg'
p512
aS'EVSG'
p513
aa(lp514
S't_set/UJ6W--400258362.jpg'
p515
aS'UJ6W'
p516
aa(lp517
S't_set/5RMB--138253411.jpg'
p518
aS'5RMB'
p519
aa(lp520
S't_set/wth5--555701468.jpg'
p521
aS'wth5'
p522
aa(lp523
S't_set/DZQM--1075894192.jpg'
p524
aS'DZQM'
p525
aa(lp526
S't_set/VK8U--81801765.jpg'
p527
aS'VK8U'
p528
aa(lp529
S't_set/gxth.jpg'
p530
aS'gxth'
p531
aa(lp532
S't_set/HYUJ--16415502.jpg'
p533
aS'HYUJ'
p534
aa(lp535
S't_set/b2nj.jpg'
p536
aS'b2nj'
p537
aa(lp538
S't_set/vkg4--1269156149.jpg'
p539
aS'vkg4'
p540
aa(lp541
S't_set/3PDA--687373264.jpg'
p542
aS'3PDA'
p543
aa(lp544
S't_set/YVK7--144228582.jpg'
p545
aS'YVK7'
p546
aa(lp547
S't_set/DZQC--767345286.jpg'
p548
aS'DZQC'
p549
aa(lp550
S't_set/5RFC--889698006.jpg'
p551
aS'5RFC'
p552
aa(lp553
S't_set/SNAZ--1303581251.jpg'
p554
aS'SNAZ'
p555
aa(lp556
S't_set/4TF6--814875281.jpg'
p557
aS'4TF6'
p558
aa(lp559
S't_set/b2pd--128048517.jpg'
p560
aS'b2pd'
p561
aa(lp562
S't_set/2PJZ--1242997513.jpg'
p563
aS'2PJZ'
p564
aa(lp565
S't_set/M8XK.jpg'
p566
aS'M8XK'
p567
aa(lp568
S't_set/M8XK--742323477.jpg'
p569
aS'M8XK'
p570
aa(lp571
S't_set/JAWM--1143575387.jpg'
p572
aS'JAWM'
p573
aa(lp574
S't_set/NCYM--160806782.jpg'
p575
aS'NCYM'
p576
aa(lp577
S't_set/RCZQ.jpg'
p578
aS'RCZQ'
p579
aa(lp580
S't_set/FBSP--422074366.jpg'
p581
aS'FBSP'
p582
aa(lp583
S't_set/ZQMB--784687494.jpg'
p584
aS'ZQMB'
p585
aa(lp586
S't_set/XTJ6.jpg'
p587
aS'XTJ6'
p588
aa(lp589
S't_set/VMGX.jpg'
p590
aS'VMGX'
p591
aa(lp592
S't_set/PB2N--1243354025.jpg'
p593
aS'PB2N'
p594
aa(lp595
S't_set/gxuf--100493779.jpg'
p596
aS'gxuf'
p597
aa(lp598
S't_set/7wje--635467983.jpg'
p599
aS'7wje'
p600
aa(lp601
S't_set/JZWM.jpg'
p602
aS'JZWM'
p603
aa(lp604
S't_set/RM9Y--379057474.jpg'
p605
aS'RM9Y'
p606
aa(lp607
S't_set/ZQMB.jpg'
p608
aS'ZQMB'
p609
aa(lp610
S't_set/CYPA.jpg'
p611
aS'CYPA'
p612
aa(lp613
S't_set/KFWT--163700303.jpg'
p614
aS'KFWT'
p615
aa(lp616
S't_set/VGDU.jpg'
p617
aS'VGDU'
p618
aa(lp619
S't_set/TH6V--655997288.jpg'
p620
aS'TH6V'
p621
aa(lp622
S't_set/UG7T--393651403.jpg'
p623
aS'UG7T'
p624
aa(lp625
S't_set/rmby.jpg'
p626
aS'rmby'
p627
aa(lp628
S't_set/vh8u--745140134.jpg'
p629
aS'vh8u'
p630
aa(lp631
S't_set/duqc.jpg'
p632
aS'duqc'
p633
aa(lp634
S't_set/9VKF.jpg'
p635
aS'9VKF'
p636
aa(lp637
S't_set/hdzr--1056983090.jpg'
p638
aS'hdzr'
p639
aa(lp640
S't_set/hd2r--805402502.jpg'
p641
aS'hd2r'
p642
aa(lp643
S't_set/PEAR--382464077.jpg'
p644
aS'PEAR'
p645
aa(lp646
S't_set/JZVH--184659284.jpg'
p647
aS'JZVH'
p648
aa(lp649
S't_set/RFBS.jpg'
p650
aS'RFBS'
p651
aa(lp652
S't_set/TPA2--1035643324.jpg'
p653
aS'TPA2'
p654
aa(lp655
S't_set/j7wh.jpg'
p656
aS'j7wh'
p657
aa(lp658
S't_set/bxpa--916649439.jpg'
p659
aS'bxpa'
p660
aa(lp661
S't_set/3PEA--578805582.jpg'
p662
aS'3PEA'
p663
aa(lp664
S't_set/SDZR--815725284.jpg'
p665
aS'SDZR'
p666
aa(lp667
S't_set/KF4T--405280989.jpg'
p668
aS'KF4T'
p669
aa(lp670
S't_set/SG5U--1251286022.jpg'
p671
aS'SG5U'
p672
aa(lp673
S't_set/4UF6--697605889.jpg'
p674
aS'4UF6'
p675
aa(lp676
S't_set/E2RD--862462961.jpg'
p677
aS'E2RD'
p678
aa(lp679
S't_set/XUJ6--888208061.jpg'
p680
aS'XUJ6'
p681
aa(lp682
S't_set/CTPA.jpg'
p683
aS'CTPA'
p684
aa(lp685
S't_set/yvg7--531198335.jpg'
p686
aS'yvg7'
p687
aa(lp688
S't_set/4UF6--1118955975.jpg'
p689
aS'4UF6'
p690
aa(lp691
S't_set/YVK7--906637137.jpg'
p692
aS'YVK7'
p693
aa(lp694
S't_set/5ufb--916810318.jpg'
p695
aS'5ufb'
p696
aa(lp697
S't_set/KAWM--347189462.jpg'
p698
aS'KAWM'
p699
aa(lp700
S't_set/QC3P--780212951.jpg'
p701
aS'QC3P'
p702
aa(lp703
S't_set/mg4u--894997571.jpg'
p704
aS'mg4u'
p705
aa(lp706
S't_set/qcyp.jpg'
p707
aS'qcyp'
p708
aa(lp709
S't_set/cypb.jpg'
p710
aS'cypb'
p711
aa(lp712
S't_set/qe2n--1076821037.jpg'
p713
aS'qe2n'
p714
aa(lp715
S't_set/FBYP--853225730.jpg'
p716
aS'FBYP'
p717
aa(lp718
S't_set/RM9Y--193534441.jpg'
p719
aS'RM9Y'
p720
aa(lp721
S't_set/8UKF--932247936.jpg'
p722
aS'8UKF'
p723
aa(lp724
S't_set/f4qe--1040970648.jpg'
p725
aS'f4qe'
p726
aa(lp727
S't_set/5VGC--799585752.jpg'
p728
aS'5VGC'
p729
aa(lp730
S't_set/YPAZ--1142713029.jpg'
p731
aS'YPAZ'
p732
aa(lp733
S't_set/qe2p--1181577052.jpg'
p734
aS'qe2p'
p735
aa(lp736
S't_set/5RFC--676815119.jpg'
p737
aS'5RFC'
p738
aa(lp739
S't_set/4QEB.jpg'
p740
aS'4QEB'
p741
aa(lp742
S't_set/HYUF--45202969.jpg'
p743
aS'HYUF'
p744
aa(lp745
S't_set/5ufc.jpg'
p746
aS'5ufc'
p747
aa(lp748
S't_set/2sdz.jpg'
p749
aS'2sdz'
p750
aa(lp751
S't_set/E5RG--1165223330.jpg'
p752
aS'E5RG'
p753
aa(lp754
S't_set/PDZW--820318323.jpg'
p755
aS'PDZW'
p756
aa(lp757
S't_set/f3qe--548712683.jpg'
p758
aS'f3qe'
p759
aa(lp760
S't_set/sh5u--1002772374.jpg'
p761
aS'sh5u'
p762
aa(lp763
S't_set/DAWM.jpg'
p764
aS'DAWM'
p765
aa(lp766
S't_set/NDZM.jpg'
p767
aS'NDZM'
p768
aa(lp769
S't_set/qk8x--422686462.jpg'
p770
aS'qk8x'
p771
aa(lp772
S't_set/B2NC.jpg'
p773
aS'B2NC'
p774
aa(lp775
S't_set/GXTF.jpg'
p776
aS'GXTF'
p777
aa(lp778
S't_set/GDZQ--734284346.jpg'
p779
aS'GDZQ'
p780
aa(lp781
S't_set/zqka.jpg'
p782
aS'zqka'
p783
aa(lp784
S't_set/UJFW--247351907.jpg'
p785
aS'UJFW'
p786
aa(lp787
S't_set/7the.jpg'
p788
aS'7the'
p789
aa(lp790
S't_set/xnh6.jpg'
p791
aS'xnh6'
p792
aa(lp793
S't_set/YUF7--482051494.jpg'
p794
aS'YUF7'
p795
aa(lp796
S't_set/gxuj--78682855.jpg'
p797
aS'gxuj'
p798
aa(lp799
S't_set/SPDZ--1119693632.jpg'
p800
aS'SPDZ'
p801
aa(lp802
S't_set/UG7T--483049088.jpg'
p803
aS'UG7T'
p804
aa(lp805
S't_set/4TE5.jpg'
p806
aS'4TE5'
p807
aa(lp808
S't_set/K8UJ--443551638.jpg'
p809
aS'K8UJ'
p810
aa(lp811
S't_set/5SGC--993365553.jpg'
p812
aS'5SGC'
p813
aa(lp814
S't_set/pdzq--312800255.jpg'
p815
aS'pdzq'
p816
aa(lp817
S't_set/AXN9--50838639.jpg'
p818
aS'AXN9'
p819
aa(lp820
S't_set/3se5.jpg'
p821
aS'3se5'
p822
aa(lp823
S't_set/g7tq.jpg'
p824
aS'g7tq'
p825
aa(lp826
S't_set/shdz.jpg'
p827
aS'shdz'
p828
aa(lp829
S't_set/UQE2.jpg'
p830
aS'UQE2'
p831
aa(lp832
S't_set/SNCZ.jpg'
p833
aS'SNCZ'
p834
aa(lp835
S't_set/PJZV--1111845556.jpg'
p836
aS'PJZV'
p837
aa(lp838
S't_set/G7UQ.jpg'
p839
aS'G7UQ'
p840
aa(lp841
S't_set/CTPD--1195402010.jpg'
p842
aS'CTPD'
p843
aa(lp844
S't_set/SH5R--1059069149.jpg'
p845
aS'SH5R'
p846
aa(lp847
S't_set/VKG4--716009094.jpg'
p848
aS'VKG4'
p849
aa(lp850
S't_set/MGXU--880105140.jpg'
p851
aS'MGXU'
p852
aa(lp853
S't_set/F3QE--275491756.jpg'
p854
aS'F3QE'
p855
aa(lp856
S't_set/TH5S.jpg'
p857
aS'TH5S'
p858
aa(lp859
S't_set/4rmb--38936768.jpg'
p860
aS'4rmb'
p861
aa(lp862
S't_set/YKBX.jpg'
p863
aS'YKBX'
p864
aa(lp865
S't_set/MGXU--925387915.jpg'
p866
aS'MGXU'
p867
aa(lp868
S't_set/EVRD--892126686.jpg'
p869
aS'EVRD'
p870
aa(lp871
S't_set/3PKA--391744480.jpg'
p872
aS'3PKA'
p873
aa(lp874
S't_set/kaxn--1170148939.jpg'
p875
aS'kaxn'
p876
aa(lp877
S't_set/DZRM.jpg'
p878
aS'DZRM'
p879
aa(lp880
S't_set/FBSP.jpg'
p881
aS'FBSP'
p882
aa(lp883
S't_set/YUK7--1110268949.jpg'
p884
aS'YUK7'
p885
aa(lp886
S't_set/YUJ6--782608176.jpg'
p887
aS'YUJ6'
p888
aa(lp889
S't_set/5rnc--793496813.jpg'
p890
aS'5rnc'
p891
aa(lp892
S't_set/ctpb.jpg'
p893
aS'ctpb'
p894
aa(lp895
S't_set/YKGX--1100157983.jpg'
p896
aS'YKGX'
p897
aa(lp898
S't_set/YUK7--838379473.jpg'
p899
aS'YUK7'
p900
aa(lp901
S't_set/NH6V.jpg'
p902
aS'NH6V'
p903
aa(lp904
S't_set/mbxp.jpg'
p905
aS'mbxp'
p906
aa(lp907
S't_set/NCZV--146387155.jpg'
p908
aS'NCZV'
p909
aa(lp910
S't_set/HYUJ--485845329.jpg'
p911
aS'HYUJ'
p912
aa(lp913
S't_set/SNDZ--256909623.jpg'
p914
aS'SNDZ'
p915
aa(lp916
S't_set/HYVK--1092662971.jpg'
p917
aS'HYVK'
p918
aa(lp919
S't_set/SH5R.jpg'
p920
aS'SH5R'
p921
aa(lp922
S't_set/E6SN.jpg'
p923
aS'E6SN'
p924
aa(lp925
S't_set/ZQKB.jpg'
p926
aS'ZQKB'
p927
aa(lp928
S't_set/AXNH--28069626.jpg'
p929
aS'AXNH'
p930
aa(lp931
S't_set/NCYV--967634929.jpg'
p932
aS'NCYV'
p933
aa(lp934
S't_set/mbxn--809985335.jpg'
p935
aS'mbxn'
p936
aa(lp937
S't_set/jevs.jpg'
p938
aS'jevs'
p939
aa(lp940
S't_set/YMBX--431990593.jpg'
p941
aS'YMBX'
p942
aa(lp943
S't_set/b2nh.jpg'
p944
aS'b2nh'
p945
aa(lp946
S't_set/qmbx.jpg'
p947
aS'qmbx'
p948
aa(lp949
S't_set/pear.jpg'
p950
aS'pear'
p951
aa(lp952
S't_set/7WHD.jpg'
p953
aS'7WHD'
p954
aa(lp955
S't_set/FBYP.jpg'
p956
aS'FBYP'
p957
aa(lp958
S't_set/SGCZ--745156973.jpg'
p959
aS'SGCZ'
p960
aa(lp961
S't_set/NDZV.jpg'
p962
aS'NDZV'
p963
aa(lp964
S't_set/ypaw.jpg'
p965
aS'ypaw'
p966
aa(lp967
S't_set/evsg.jpg'
p968
aS'evsg'
p969
aa(lp970
S't_set/8UJF--428317608.jpg'
p971
aS'8UJF'
p972
aa(lp973
S't_set/kbxj--1160977646.jpg'
p974
aS'kbxj'
p975
aa(lp976
S't_set/EBXN--368319560.jpg'
p977
aS'EBXN'
p978
aa(lp979
S't_set/QEAX--395842513.jpg'
p980
aS'QEAX'
p981
aa(lp982
S't_set/3QEA--1298761741.jpg'
p983
aS'3QEA'
p984
aa(lp985
S't_set/D4RM.jpg'
p986
aS'D4RM'
p987
aa(lp988
S't_set/VK8X--804140775.jpg'
p989
aS'VK8X'
p990
aa(lp991
S't_set/E5SN.jpg'
p992
aS'E5SN'
p993
aa(lp994
S't_set/UFBT.jpg'
p995
aS'UFBT'
p996
aa(lp997
S't_set/4UFB.jpg'
p998
aS'4UFB'
p999
aa(lp1000
S't_set/M8XK--28696227.jpg'
p1001
aS'M8XK'
p1002
aa(lp1003
S't_set/PAZN.jpg'
p1004
aS'PAZN'
p1005
aa(lp1006
S't_set/9ymg--1111635447.jpg'
p1007
aS'9ymg'
p1008
aa(lp1009
S't_set/AWTH.jpg'
p1010
aS'AWTH'
p1011
aa(lp1012
S't_set/SGCZ--634938583.jpg'
p1013
aS'SGCZ'
p1014
aa(lp1015
S't_set/ZNCY--82330918.jpg'
p1016
aS'ZNCY'
p1017
aa(lp1018
S't_set/xuf6--739829886.jpg'
p1019
aS'xuf6'
p1020
aa(lp1021
S't_set/ASNC.jpg'
p1022
aS'ASNC'
p1023
aa(lp1024
S't_set/UJE3.jpg'
p1025
aS'UJE3'
p1026
aa(lp1027
S't_set/HYUG--167154978.jpg'
p1028
aS'HYUG'
p1029
aa(lp1030
S't_set/FBXN.jpg'
p1031
aS'FBXN'
p1032
aa(lp1033
S't_set/yqk7--1208782391.jpg'
p1034
aS'yqk7'
p1035
aa(lp1036
S't_set/GYUF--907106504.jpg'
p1037
aS'GYUF'
p1038
aa(lp1039
S't_set/pazn.jpg'
p1040
aS'pazn'
p1041
aa(lp1042
S't_set/EVSG--452281898.jpg'
p1043
aS'EVSG'
p1044
aa(lp1045
S't_set/yug7.jpg'
p1046
aS'yug7'
p1047
aa(lp1048
S't_set/XTF6--1154567989.jpg'
p1049
aS'XTF6'
p1050
aa(lp1051
S't_set/HD2R--37731326.jpg'
p1052
aS'HD2R'
p1053
aa(lp1054
S't_set/zmby.jpg'
p1055
aS'zmby'
p1056
aa(lp1057
S't_set/M8VK.jpg'
p1058
aS'M8VK'
p1059
aa(lp1060
S't_set/UJ7W--319158436.jpg'
p1061
aS'UJ7W'
p1062
aa(lp1063
S't_set/k7wj.jpg'
p1064
aS'k7wj'
p1065
aa(lp1066
S't_set/EVRF--678466343.jpg'
p1067
aS'EVRF'
p1068
aa(lp1069
S't_set/D2RC--790189225.jpg'
p1070
aS'D2RC'
p1071
aa(lp1072
S't_set/mhyu.jpg'
p1073
aS'mhyu'
p1074
aa(lp1075
S't_set/4UF6.jpg'
p1076
aS'4UF6'
p1077
aa(lp1078
S't_set/2RCZ.jpg'
p1079
aS'2RCZ'
p1080
aa(lp1081
S't_set/J6WH--23964808.jpg'
p1082
aS'J6WH'
p1083
aa(lp1084
S't_set/gxuj.jpg'
p1085
aS'gxuj'
p1086
aa(lp1087
S't_set/YUF6.jpg'
p1088
aS'YUF6'
p1089
aa(lp1090
S't_set/rgcy--1181670492.jpg'
p1091
aS'rgcy'
p1092
aa(lp1093
S't_set/AWJ9--1305864068.jpg'
p1094
aS'AWJ9'
p1095
aa(lp1096
S't_set/6SND--652029896.jpg'
p1097
aS'6SND'
p1098
aa(lp1099
S't_set/wsg5--1299656136.jpg'
p1100
aS'wsg5'
p1101
aa(lp1102
S't_set/ncym.jpg'
p1103
aS'ncym'
p1104
aa(lp1105
S't_set/FXTE--577420608.jpg'
p1106
aS'FXTE'
p1107
aa(lp1108
S't_set/k7uj--1065787001.jpg'
p1109
aS'k7uj'
p1110
aa(lp1111
S't_set/HZVG.jpg'
p1112
aS'HZVG'
p1113
aa(lp1114
S't_set/AXN9--1097944699.jpg'
p1115
aS'AXN9'
p1116
aa(lp1117
S't_set/D4RF--530226916.jpg'
p1118
aS'D4RF'
p1119
aa(lp1120
S't_set/E2RD--587786636.jpg'
p1121
aS'E2RD'
p1122
aa(lp1123
S't_set/vkfw.jpg'
p1124
aS'vkfw'
p1125
aa(lp1126
S't_set/WHDU.jpg'
p1127
aS'WHDU'
p1128
aa(lp1129
S't_set/ZMBY--455906918.jpg'
p1130
aS'ZMBY'
p1131
aa(lp1132
S't_set/YUJ7--1160550404.jpg'
p1133
aS'YUJ7'
p1134
aa(lp1135
S't_set/2pdz.jpg'
p1136
aS'2pdz'
p1137
aa(lp1138
S't_set/EARN--701810309.jpg'
p1139
aS'EARN'
p1140
aa(lp1141
S't_set/dzqc.jpg'
p1142
aS'dzqc'
p1143
aa(lp1144
S't_set/PA2N--641987605.jpg'
p1145
aS'PA2N'
p1146
aa(lp1147
S't_set/E2SD.jpg'
p1148
aS'E2SD'
p1149
aa(lp1150
S't_set/AWJ9--691133143.jpg'
p1151
aS'AWJ9'
p1152
aa(lp1153
S't_set/PKAW.jpg'
p1154
aS'PKAW'
p1155
aa(lp1156
S't_set/vk8u.jpg'
p1157
aS'vk8u'
p1158
aa(lp1159
S't_set/vhdu.jpg'
p1160
aS'vhdu'
p1161
aa(lp1162
S't_set/VG8U.jpg'
p1163
aS'VG8U'
p1164
aa(lp1165
S't_set/H8VR.jpg'
p1166
aS'H8VR'
p1167
aa(lp1168
S't_set/mh5u.jpg'
p1169
aS'mh5u'
p1170
aa(lp1171
S't_set/AXJ9.jpg'
p1172
aS'AXJ9'
p1173
aa(lp1174
S't_set/WSH5.jpg'
p1175
aS'WSH5'
p1176
aa(lp1177
S't_set/RF3Q--403879822.jpg'
p1178
aS'RF3Q'
p1179
aa(lp1180
S't_set/XTH5.jpg'
p1181
aS'XTH5'
p1182
aa(lp1183
S't_set/qeaw--684863456.jpg'
p1184
aS'qeaw'
p1185
aa(lp1186
S't_set/D2RC--1273874535.jpg'
p1187
aS'D2RC'
p1188
aa(lp1189
S't_set/aznh--275993712.jpg'
p1190
aS'aznh'
p1191
aa(lp1192
S't_set/VH8U--1020673946.jpg'
p1193
aS'VH8U'
p1194
aa(lp1195
S't_set/SPDZ--466833858.jpg'
p1196
aS'SPDZ'
p1197
aa(lp1198
S't_set/kaxn--983967807.jpg'
p1199
aS'kaxn'
p1200
aa(lp1201
S't_set/mbxn.jpg'
p1202
aS'mbxn'
p1203
aa(lp1204
S't_set/AXNH--948412629.jpg'
p1205
aS'AXNH'
p1206
aa(lp1207
S't_set/GXTF--303528271.jpg'
p1208
aS'GXTF'
p1209
aa(lp1210
S't_set/YPKA--113801698.jpg'
p1211
aS'YPKA'
p1212
aa(lp1213
S't_set/9WMG--294383554.jpg'
p1214
aS'9WMG'
p1215
aa(lp1216
S't_set/sdar--313507510.jpg'
p1217
aS'sdar'
p1218
aa(lp1219
S't_set/YPB2.jpg'
p1220
aS'YPB2'
p1221
aa(lp1222
S't_set/J9VM.jpg'
p1223
aS'J9VM'
p1224
aa(lp1225
S't_set/SEAR.jpg'
p1226
aS'SEAR'
p1227
aa(lp1228
S't_set/ZWM8--1114035477.jpg'
p1229
aS'ZWM8'
p1230
aa(lp1231
S't_set/PAXN.jpg'
p1232
aS'PAXN'
p1233
aa(lp1234
S't_set/d2nc--566890590.jpg'
p1235
aS'd2nc'
p1236
aa(lp1237
S't_set/7WH8.jpg'
p1238
aS'7WH8'
p1239
aa(lp1240
S't_set/8ukf.jpg'
p1241
aS'8ukf'
p1242
aa(lp1243
S't_set/m8yk.jpg'
p1244
aS'm8yk'
p1245
aa(lp1246
S't_set/3qea.jpg'
p1247
aS'3qea'
p1248
aa(lp1249
S't_set/VH8U.jpg'
p1250
aS'VH8U'
p1251
aa(lp1252
S't_set/e2rc.jpg'
p1253
aS'e2rc'
p1254
aa(lp1255
S't_set/PAZM.jpg'
p1256
aS'PAZM'
p1257
aa(lp1258
S't_set/bypa--653079560.jpg'
p1259
aS'bypa'
p1260
aa(lp1261
S't_set/XNH6.jpg'
p1262
aS'XNH6'
p1263
aa(lp1264
S't_set/aznh.jpg'
p1265
aS'aznh'
p1266
aa(lp1267
S't_set/nczm--1146647294.jpg'
p1268
aS'nczm'
p1269
aa(lp1270
S't_set/G7TH--1161744761.jpg'
p1271
aS'G7TH'
p1272
aa(lp1273
S't_set/H8UR--47712842.jpg'
p1274
aS'H8UR'
p1275
aa(lp1276
S't_set/ARNC.jpg'
p1277
aS'ARNC'
p1278
aa(lp1279
S't_set/GYUJ--986948945.jpg'
p1280
aS'GYUJ'
p1281
aa(lp1282
S't_set/j6wh.jpg'
p1283
aS'j6wh'
p1284
aa(lp1285
S't_set/MHYU--41885592.jpg'
p1286
aS'MHYU'
p1287
aa(lp1288
S't_set/4RMB--782789315.jpg'
p1289
aS'4RMB'
p1290
aa(lp1291
S't_set/JZVH--161254186.jpg'
p1292
aS'JZVH'
p1293
aa(lp1294
S't_set/6vh8--669684629.jpg'
p1295
aS'6vh8'
p1296
aa(lp1297
S't_set/NCYQ--1101134278.jpg'
p1298
aS'NCYQ'
p1299
aa(lp1300
S't_set/EBXN.jpg'
p1301
aS'EBXN'
p1302
aa(lp1303
S't_set/xth6--1105903320.jpg'
p1304
aS'xth6'
p1305
aa(lp1306
S't_set/e2sd--767630567.jpg'
p1307
aS'e2sd'
p1308
aa(lp1309
S't_set/SPDZ--1005461555.jpg'
p1310
aS'SPDZ'
p1311
aa(lp1312
S't_set/ZWM8--726183260.jpg'
p1313
aS'ZWM8'
p1314
aa(lp1315
S't_set/6SPD--894871177.jpg'
p1316
aS'6SPD'
p1317
aa(lp1318
S't_set/CZQB.jpg'
p1319
aS'CZQB'
p1320
aa(lp1321
S't_set/PB2N--1185857394.jpg'
p1322
aS'PB2N'
p1323
aa(lp1324
S't_set/4RFB.jpg'
p1325
aS'4RFB'
p1326
aa(lp1327
S't_set/SGDU--1021039225.jpg'
p1328
aS'SGDU'
p1329
aa(lp1330
S't_set/nawm--650279095.jpg'
p1331
aS'nawm'
p1332
aa(lp1333
S't_set/SPDZ--676151478.jpg'
p1334
aS'SPDZ'
p1335
aa(lp1336
S't_set/NAZM--841001507.jpg'
p1337
aS'NAZM'
p1338
aa(lp1339
S't_set/vrd4.jpg'
p1340
aS'vrd4'
p1341
aa(lp1342
S't_set/YKAW.jpg'
p1343
aS'YKAW'
p1344
aa(lp1345
S't_set/HDVR--277120978.jpg'
p1346
aS'HDVR'
p1347
aa(lp1348
S't_set/6TPD.jpg'
p1349
aS'6TPD'
p1350
aa(lp1351
S't_set/XNHY.jpg'
p1352
aS'XNHY'
p1353
aa(lp1354
S't_set/XN9W--1305258434.jpg'
p1355
aS'XN9W'
p1356
aa(lp1357
S't_set/EARN--553240887.jpg'
p1358
aS'EARN'
p1359
aa(lp1360
S't_set/YKGX--1129005074.jpg'
p1361
aS'YKGX'
p1362
aa(lp1363
S't_set/pjzv--131600286.jpg'
p1364
aS'pjzv'
p1365
aa(lp1366
S't_set/gdzq.jpg'
p1367
aS'gdzq'
p1368
aa(lp1369
S't_set/h5ug--207865047.jpg'
p1370
aS'h5ug'
p1371
aa(lp1372
S't_set/7WJ9--971452050.jpg'
p1373
aS'7WJ9'
p1374
aa(lp1375
S't_set/YUJ7--742042071.jpg'
p1376
aS'YUJ7'
p1377
aa(lp1378
S't_set/E2RC--858946058.jpg'
p1379
aS'E2RC'
p1380
aa(lp1381
S't_set/EWSG.jpg'
p1382
aS'EWSG'
p1383
aa(lp1384
S't_set/FCTP.jpg'
p1385
aS'FCTP'
p1386
aa(lp1387
S't_set/CTQE.jpg'
p1388
aS'CTQE'
p1389
aa(lp1390
S't_set/JEVS.jpg'
p1391
aS'JEVS'
p1392
aa(lp1393
S't_set/KFWS.jpg'
p1394
aS'KFWS'
p1395
aa(lp1396
S't_set/kfwt--570629572.jpg'
p1397
aS'kfwt'
p1398
aa(lp1399
S't_set/g4uf.jpg'
p1400
aS'g4uf'
p1401
aa(lp1402
S't_set/3PEA.jpg'
p1403
aS'3PEA'
p1404
aa(lp1405
S't_set/9wmg--40652620.jpg'
p1406
aS'9wmg'
p1407
aa(lp1408
S't_set/xkfw--363696137.jpg'
p1409
aS'xkfw'
p1410
aa(lp1411
S't_set/5VG7--559261084.jpg'
p1412
aS'5VG7'
p1413
aa(lp1414
S't_set/VKFX--966697600.jpg'
p1415
aS'VKFX'
p1416
aa(lp1417
S't_set/XNJZ.jpg'
p1418
aS'XNJZ'
p1419
aa(lp1420
S't_set/EVRC--727279781.jpg'
p1421
aS'EVRC'
p1422
aa(lp1423
S't_set/3PDA--513187440.jpg'
p1424
aS'3PDA'
p1425
aa(lp1426
S't_set/QF3P.jpg'
p1427
aS'QF3P'
p1428
aa(lp1429
S't_set/HZVK.jpg'
p1430
aS'HZVK'
p1431
aa(lp1432
S't_set/zqb2.jpg'
p1433
aS'zqb2'
p1434
aa(lp1435
S't_set/NCZQ.jpg'
p1436
aS'NCZQ'
p1437
aa(lp1438
S't_set/VG7U--718487853.jpg'
p1439
aS'VG7U'
p1440
aa(lp1441
S't_set/vgdu--249385630.jpg'
p1442
aS'vgdu'
p1443
aa(lp1444
S't_set/SPAZ.jpg'
p1445
aS'SPAZ'
p1446
aa(lp1447
S't_set/2PJZ--36861943.jpg'
p1448
aS'2PJZ'
p1449
aa(lp1450
S't_set/zvm8.jpg'
p1451
aS'zvm8'
p1452
aa(lp1453
S't_set/ZQB3.jpg'
p1454
aS'ZQB3'
p1455
aa(lp1456
S't_set/cykb.jpg'
p1457
aS'cykb'
p1458
aa(lp1459
S't_set/J7TH--450444654.jpg'
p1460
aS'J7TH'
p1461
aa(lp1462
S't_set/G4QF.jpg'
p1463
aS'G4QF'
p1464
aa(lp1465
S't_set/RC3Q.jpg'
p1466
aS'RC3Q'
p1467
aa(lp1468
S't_set/NCYV.jpg'
p1469
aS'NCYV'
p1470
aa(lp1471
S't_set/zncy.jpg'
p1472
aS'zncy'
p1473
aa(lp1474
S't_set/uf6t--532071668.jpg'
p1475
aS'uf6t'
p1476
aa(lp1477
S't_set/F4TE--745269801.jpg'
p1478
aS'F4TE'
p1479
aa(lp1480
S't_set/H5UG.jpg'
p1481
aS'H5UG'
p1482
aa(lp1483
S't_set/5rgc.jpg'
p1484
aS'5rgc'
p1485
aa(lp1486
S't_set/QBYP.jpg'
p1487
aS'QBYP'
p1488
aa(lp1489
S't_set/TEAR--895668078.jpg'
p1490
aS'TEAR'
p1491
aa(lp1492
S't_set/E5RN--1127234531.jpg'
p1493
aS'E5RN'
p1494
aa(lp1495
S't_set/e5sn.jpg'
p1496
aS'e5sn'
p1497
aa(lp1498
S't_set/sd4r--1186484271.jpg'
p1499
aS'sd4r'
p1500
aa(lp1501
S't_set/byuj--862324424.jpg'
p1502
aS'byuj'
p1503
aa(lp1504
S't_set/UF6T--1138116089.jpg'
p1505
aS'UF6T'
p1506
aa(lp1507
S't_set/UQF3--716921320.jpg'
p1508
aS'UQF3'
p1509
aa(lp1510
S't_set/vk7t.jpg'
p1511
aS'vk7t'
p1512
aa(lp1513
S't_set/G4RF.jpg'
p1514
aS'G4RF'
p1515
aa(lp1516
S't_set/8UJF--393589314.jpg'
p1517
aS'8UJF'
p1518
aa(lp1519
S't_set/pb2n--881732439.jpg'
p1520
aS'pb2n'
p1521
aa(lp1522
S't_set/byuj--1268585921.jpg'
p1523
aS'byuj'
p1524
aa(lp1525
S't_set/XNHZ--417900949.jpg'
p1526
aS'XNHZ'
p1527
aa(lp1528
S't_set/WJEV.jpg'
p1529
aS'WJEV'
p1530
aa(lp1531
S't_set/jzwh.jpg'
p1532
aS'jzwh'
p1533
aa(lp1534
S't_set/uk7w.jpg'
p1535
aS'uk7w'
p1536
aa(lp1537
S't_set/YQK7--200862557.jpg'
p1538
aS'YQK7'
p1539
aa(lp1540
S't_set/jzvk.jpg'
p1541
aS'jzvk'
p1542
aa(lp1543
S't_set/fbyp.jpg'
p1544
aS'fbyp'
p1545
aa(lp1546
S't_set/H8UR--1083503254.jpg'
p1547
aS'H8UR'
p1548
aa(lp1549
S't_set/H6SG--649824484.jpg'
p1550
aS'H6SG'
p1551
aa(lp1552
S't_set/YPKA--1099325978.jpg'
p1553
aS'YPKA'
p1554
aa(lp1555
S't_set/XNAW--789504874.jpg'
p1556
aS'XNAW'
p1557
aa(lp1558
S't_set/URC3.jpg'
p1559
aS'URC3'
p1560
aa(lp1561
S't_set/YUJ7--852097303.jpg'
p1562
aS'YUJ7'
p1563
aa(lp1564
S't_set/5rnc.jpg'
p1565
aS'5rnc'
p1566
aa(lp1567
S't_set/7TJE--924471302.jpg'
p1568
aS'7TJE'
p1569
aa(lp1570
S't_set/SGDZ--1121906892.jpg'
p1571
aS'SGDZ'
p1572
aa(lp1573
S't_set/QB2N--327981543.jpg'
p1574
aS'QB2N'
p1575
aa(lp1576
S't_set/4TEB.jpg'
p1577
aS'4TEB'
p1578
aa(lp1579
S't_set/WMH5.jpg'
p1580
aS'WMH5'
p1581
aa(lp1582
S't_set/7THD--340776213.jpg'
p1583
aS'7THD'
p1584
aa(lp1585
S't_set/wse5--309775540.jpg'
p1586
aS'wse5'
p1587
aa(lp1588
S't_set/YKAX.jpg'
p1589
aS'YKAX'
p1590
aa(lp1591
S't_set/RG4Q.jpg'
p1592
aS'RG4Q'
p1593
aa(lp1594
S't_set/TE5S.jpg'
p1595
aS'TE5S'
p1596
aa(lp1597
S't_set/3PDZ--1157924636.jpg'
p1598
aS'3PDZ'
p1599
aa(lp1600
S't_set/7UJE--374316427.jpg'
p1601
aS'7UJE'
p1602
aa(lp1603
S't_set/g4rf.jpg'
p1604
aS'g4rf'
p1605
aa(lp1606
S't_set/XTH6.jpg'
p1607
aS'XTH6'
p1608
aa(lp1609
S't_set/gyuf--62528850.jpg'
p1610
aS'gyuf'
p1611
aa(lp1612
S't_set/YUJ7.jpg'
p1613
aS'YUJ7'
p1614
aa(lp1615
S't_set/GXTF--647959204.jpg'
p1616
aS'GXTF'
p1617
aa(lp1618
S't_set/2NDZ.jpg'
p1619
aS'2NDZ'
p1620
aa(lp1621
S't_set/ARMC--555174483.jpg'
p1622
aS'ARMC'
p1623
aa(lp1624
S't_set/3PJA.jpg'
p1625
aS'3PJA'
p1626
aa(lp1627
S't_set/RF3S.jpg'
p1628
aS'RF3S'
p1629
aa(lp1630
S't_set/VK7W--1185455446.jpg'
p1631
aS'VK7W'
p1632
aa(lp1633
S't_set/zmgy--715214793.jpg'
p1634
aS'zmgy'
p1635
aa(lp1636
S't_set/7whe--1251106248.jpg'
p1637
aS'7whe'
p1638
aa(lp1639
S't_set/YPJZ--60216300.jpg'
p1640
aS'YPJZ'
p1641
aa(lp1642
S't_set/zqk8.jpg'
p1643
aS'zqk8'
p1644
aa(lp1645
S't_set/QKAX--909991767.jpg'
p1646
aS'QKAX'
p1647
aa(lp1648
S't_set/j9vk.jpg'
p1649
aS'j9vk'
p1650
aa(lp1651
S't_set/DURC--325304134.jpg'
p1652
aS'DURC'
p1653
aa(lp1654
S't_set/4QEB--1278991283.jpg'
p1655
aS'4QEB'
p1656
aa(lp1657
S't_set/NAWM.jpg'
p1658
aS'NAWM'
p1659
aa(lp1660
S't_set/GXUJ--1152747481.jpg'
p1661
aS'GXUJ'
p1662
aa(lp1663
S't_set/M8UK--88040375.jpg'
p1664
aS'M8UK'
p1665
aa(lp1666
S't_set/UJFW--966003786.jpg'
p1667
aS'UJFW'
p1668
aa(lp1669
S't_set/PEAW.jpg'
p1670
aS'PEAW'
p1671
aa(lp1672
S't_set/URF3--491936848.jpg'
p1673
aS'URF3'
p1674
aa(lp1675
S't_set/WM9V.jpg'
p1676
aS'WM9V'
p1677
aa(lp1678
S't_set/tpe2.jpg'
p1679
aS'tpe2'
p1680
aa(lp1681
S't_set/PDAW--151990171.jpg'
p1682
aS'PDAW'
p1683
aa(lp1684
S't_set/9ykg.jpg'
p1685
aS'9ykg'
p1686
aa(lp1687
S't_set/JEVS--494077438.jpg'
p1688
aS'JEVS'
p1689
aa(lp1690
S't_set/N9YM--757931555.jpg'
p1691
aS'N9YM'
p1692
aa(lp1693
S't_set/2SD4.jpg'
p1694
aS'2SD4'
p1695
aa(lp1696
S't_set/wm9y.jpg'
p1697
aS'wm9y'
p1698
aa(lp1699
S't_set/KAWM--800832071.jpg'
p1700
aS'KAWM'
p1701
aa(lp1702
S't_set/sg5r--533624099.jpg'
p1703
aS'sg5r'
p1704
aa(lp1705
S't_set/YUJ7--989655178.jpg'
p1706
aS'YUJ7'
p1707
aa(lp1708
S't_set/ebsn--86221161.jpg'
p1709
aS'ebsn'
p1710
aa(lp1711
S't_set/ykax.jpg'
p1712
aS'ykax'
p1713
aa(lp1714
S't_set/7TJE--894161273.jpg'
p1715
aS'7TJE'
p1716
aa(lp1717
S't_set/rfct.jpg'
p1718
aS'rfct'
p1719
aa(lp1720
S't_set/GXTJ--134818785.jpg'
p1721
aS'GXTJ'
p1722
aa(lp1723
S't_set/fwte.jpg'
p1724
aS'fwte'
p1725
aa(lp1726
S't_set/ZQK8.jpg'
p1727
aS'ZQK8'
p1728
aa(lp1729
S't_set/bxka.jpg'
p1730
aS'bxka'
p1731
aa(lp1732
S't_set/BXNA--703785964.jpg'
p1733
aS'BXNA'
p1734
aa(lp1735
S't_set/XUF6--862585528.jpg'
p1736
aS'XUF6'
p1737
aa(lp1738
S't_set/VHDU--1235718319.jpg'
p1739
aS'VHDU'
p1740
aa(lp1741
S't_set/RM9Y--1211083961.jpg'
p1742
aS'RM9Y'
p1743
aa(lp1744
S't_set/uj6w.jpg'
p1745
aS'uj6w'
p1746
aa(lp1747
S't_set/rc3p.jpg'
p1748
aS'rc3p'
p1749
aa(lp1750
S't_set/SPAZ--414708745.jpg'
p1751
aS'SPAZ'
p1752
aa(lp1753
S't_set/5VGC.jpg'
p1754
aS'5VGC'
p1755
aa(lp1756
S't_set/UJ6S.jpg'
p1757
aS'UJ6S'
p1758
aa(lp1759
S't_set/AWSH.jpg'
p1760
aS'AWSH'
p1761
aa(lp1762
S't_set/AWNH--634502576.jpg'
p1763
aS'AWNH'
p1764
aa(lp1765
S't_set/RNCY--31785384.jpg'
p1766
aS'RNCY'
p1767
aa(lp1768
S't_set/7uqe.jpg'
p1769
aS'7uqe'
p1770
aa(lp1771
S't_set/spaz--315235890.jpg'
p1772
aS'spaz'
p1773
aa(lp1774
S't_set/FBTP--503277599.jpg'
p1775
aS'FBTP'
p1776
aa(lp1777
S't_set/xth6.jpg'
p1778
aS'xth6'
p1779
aa(lp1780
S't_set/ZVK7.jpg'
p1781
aS'ZVK7'
p1782
aa(lp1783
S't_set/hdur.jpg'
p1784
aS'hdur'
p1785
aa(lp1786
S't_set/KAXN--640449099.jpg'
p1787
aS'KAXN'
p1788
aa(lp1789
S't_set/7TQE--1283255650.jpg'
p1790
aS'7TQE'
p1791
aa(lp1792
S't_set/9WSG.jpg'
p1793
aS'9WSG'
p1794
aa(lp1795
S't_set/SGCY--955418359.jpg'
p1796
aS'SGCY'
p1797
aa(lp1798
S't_set/7UJE--65802778.jpg'
p1799
aS'7UJE'
p1800
aa(lp1801
S't_set/k7uj--724923038.jpg'
p1802
aS'k7uj'
p1803
aa(lp1804
S't_set/pawn--92534438.jpg'
p1805
aS'pawn'
p1806
aa(lp1807
S't_set/earn--1083340906.jpg'
p1808
aS'earn'
p1809
aa(lp1810
S't_set/ZVK8.jpg'
p1811
aS'ZVK8'
p1812
aa(lp1813
S't_set/RF4T--473010882.jpg'
p1814
aS'RF4T'
p1815
aa(lp1816
S't_set/4QMB--1241144659.jpg'
p1817
aS'4QMB'
p1818
aa(lp1819
S't_set/7wh9.jpg'
p1820
aS'7wh9'
p1821
aa(lp1822
S't_set/KFXT--1085626119.jpg'
p1823
aS'KFXT'
p1824
aa(lp1825
S't_set/SG4R.jpg'
p1826
aS'SG4R'
p1827
aa(lp1828
S't_set/5UG7.jpg'
p1829
aS'5UG7'
p1830
aa(lp1831
S't_set/H8UR.jpg'
p1832
aS'H8UR'
p1833
aa(lp1834
S't_set/DZQM--1233330598.jpg'
p1835
aS'DZQM'
p1836
aa(lp1837
S't_set/gxtf--1123990698.jpg'
p1838
aS'gxtf'
p1839
aa(lp1840
S't_set/b2pj--867772001.jpg'
p1841
aS'b2pj'
p1842
aa(lp1843
S't_set/e3pd.jpg'
p1844
aS'e3pd'
p1845
aa(lp1846
S't_set/A2NC--812280319.jpg'
p1847
aS'A2NC'
p1848
aa(lp1849
S't_set/PJAW--594960888.jpg'
p1850
aS'PJAW'
p1851
aa(lp1852
S't_set/sg5r.jpg'
p1853
aS'sg5r'
p1854
aa(lp1855
S't_set/ncyv--746208846.jpg'
p1856
aS'ncyv'
p1857
aa(lp1858
S't_set/7UJE--285658772.jpg'
p1859
aS'7UJE'
p1860
aa(lp1861
S't_set/H8UK--701607970.jpg'
p1862
aS'H8UK'
p1863
aa(lp1864
S't_set/UF7T--788780442.jpg'
p1865
aS'UF7T'
p1866
aa(lp1867
S't_set/8VRF.jpg'
p1868
aS'8VRF'
p1869
aa(lp1870
S't_set/UJ6W.jpg'
p1871
aS'UJ6W'
p1872
aa(lp1873
S't_set/2NHY.jpg'
p1874
aS'2NHY'
p1875
aa(lp1876
S't_set/8VKF--290428342.jpg'
p1877
aS'8VKF'
p1878
aa(lp1879
S't_set/DZRC.jpg'
p1880
aS'DZRC'
p1881
aa(lp1882
S't_set/YPJ7.jpg'
p1883
aS'YPJ7'
p1884
aa(lp1885
S't_set/czvk.jpg'
p1886
aS'czvk'
p1887
aa(lp1888
S't_set/dawm.jpg'
p1889
aS'dawm'
p1890
aa(lp1891
S't_set/nj6v.jpg'
p1892
aS'nj6v'
p1893
aa(lp1894
S't_set/rcyp.jpg'
p1895
aS'rcyp'
p1896
aa(lp1897
S't_set/ykgx--113119313.jpg'
p1898
aS'ykgx'
p1899
aa(lp1900
S't_set/VK7U--31948708.jpg'
p1901
aS'VK7U'
p1902
aa(lp1903
S't_set/PE2R.jpg'
p1904
aS'PE2R'
p1905
aa(lp1906
S't_set/GDUQ--638658255.jpg'
p1907
aS'GDUQ'
p1908
aa(lp1909
S't_set/WSD4.jpg'
p1910
aS'WSD4'
p1911
aa(lp1912
S't_set/XTE6--89783329.jpg'
p1913
aS'XTE6'
p1914
aa(lp1915
S't_set/CYUK--680018221.jpg'
p1916
aS'CYUK'
p1917
aa(lp1918
S't_set/XJAW.jpg'
p1919
aS'XJAW'
p1920
aa(lp1921
S't_set/ARM9--959229206.jpg'
p1922
aS'ARM9'
p1923
aa(lp1924
S't_set/E2SD--1254830011.jpg'
p1925
aS'E2SD'
p1926
aa(lp1927
S't_set/E5SG.jpg'
p1928
aS'E5SG'
p1929
aa(lp1930
S't_set/5sgc--381860862.jpg'
p1931
aS'5sgc'
p1932
aa(lp1933
S't_set/k7xj.jpg'
p1934
aS'k7xj'
p1935
aa(lp1936
S't_set/AXN9--159056639.jpg'
p1937
aS'AXN9'
p1938
aa(lp1939
S't_set/QFBX--261400023.jpg'
p1940
aS'QFBX'
p1941
aa(lp1942
S't_set/VKFW--650252920.jpg'
p1943
aS'VKFW'
p1944
aa(lp1945
S't_set/KF3T--565681122.jpg'
p1946
aS'KF3T'
p1947
aa(lp1948
S't_set/EVRG--59910747.jpg'
p1949
aS'EVRG'
p1950
aa(lp1951
S't_set/PAZM--332628072.jpg'
p1952
aS'PAZM'
p1953
aa(lp1954
S't_set/H8UR--1021348084.jpg'
p1955
aS'H8UR'
p1956
aa(lp1957
S't_set/RFBT.jpg'
p1958
aS'RFBT'
p1959
aa(lp1960
S't_set/DZQC--1025111497.jpg'
p1961
aS'DZQC'
p1962
aa(lp1963
S't_set/QCYP.jpg'
p1964
aS'QCYP'
p1965
aa(lp1966
S't_set/mgxu--244651341.jpg'
p1967
aS'mgxu'
p1968
aa(lp1969
S't_set/GCTP.jpg'
p1970
aS'GCTP'
p1971
aa(lp1972
S't_set/kaxn.jpg'
p1973
aS'kaxn'
p1974
aa(lp1975
S't_set/J6SH--887691322.jpg'
p1976
aS'J6SH'
p1977
aa(lp1978
S't_set/XJAW--991955274.jpg'
p1979
aS'XJAW'
p1980
aa(lp1981
S't_set/WHEV--198115623.jpg'
p1982
aS'WHEV'
p1983
aa(lp1984
S't_set/sgcz--1175819225.jpg'
p1985
aS'sgcz'
p1986
aa(lp1987
S't_set/QE3S.jpg'
p1988
aS'QE3S'
p1989
aa(lp1990
S't_set/PJZW--569205278.jpg'
p1991
aS'PJZW'
p1992
aa(lp1993
S't_set/KBXT.jpg'
p1994
aS'KBXT'
p1995
aa(lp1996
S't_set/rm9y.jpg'
p1997
aS'rm9y'
p1998
aa(lp1999
S't_set/XTF6--1249154248.jpg'
p2000
aS'XTF6'
p2001
aa(lp2002
S't_set/GYUJ--387409544.jpg'
p2003
aS'GYUJ'
p2004
aa(lp2005
S't_set/XNJZ--714857274.jpg'
p2006
aS'XNJZ'
p2007
aa(lp2008
S't_set/N9YK--811729677.jpg'
p2009
aS'N9YK'
p2010
aa(lp2011
S't_set/7TJE.jpg'
p2012
aS'7TJE'
p2013
aa(lp2014
S't_set/2rc3--821143701.jpg'
p2015
aS'2rc3'
p2016
aa(lp2017
S't_set/qmbx--779013689.jpg'
p2018
aS'qmbx'
p2019
aa(lp2020
S't_set/njzv--757046808.jpg'
p2021
aS'njzv'
p2022
aa(lp2023
S't_set/SD4R--853715500.jpg'
p2024
aS'SD4R'
p2025
aa(lp2026
S't_set/9YKA--245436504.jpg'
p2027
aS'9YKA'
p2028
aa(lp2029
S't_set/YUG7.jpg'
p2030
aS'YUG7'
p2031
aa(lp2032
S't_set/7wj9.jpg'
p2033
aS'7wj9'
p2034
aa(lp2035
S't_set/YPK7--458305594.jpg'
p2036
aS'YPK7'
p2037
aa(lp2038
S't_set/m8vk.jpg'
p2039
aS'm8vk'
p2040
aa(lp2041
S't_set/MH5U.jpg'
p2042
aS'MH5U'
p2043
aa(lp2044
S't_set/EVRF.jpg'
p2045
aS'EVRF'
p2046
aa(lp2047
S't_set/RF4Q--1258404674.jpg'
p2048
aS'RF4Q'
p2049
aa(lp2050
S't_set/RMCY--856300.jpg'
p2051
aS'RMCY'
p2052
aa(lp2053
S't_set/TPB2.jpg'
p2054
aS'TPB2'
p2055
aa(lp2056
S't_set/QK7X--950330806.jpg'
p2057
aS'QK7X'
p2058
aa(lp2059
S't_set/GDZQ--321855493.jpg'
p2060
aS'GDZQ'
p2061
aa(lp2062
S't_set/ARM8--64456040.jpg'
p2063
aS'ARM8'
p2064
aa(lp2065
S't_set/axnh.jpg'
p2066
aS'axnh'
p2067
aa(lp2068
S't_set/UJE3--609047860.jpg'
p2069
aS'UJE3'
p2070
aa(lp2071
S't_set/wm8x.jpg'
p2072
aS'wm8x'
p2073
aa(lp2074
S't_set/UKFW--1223299586.jpg'
p2075
aS'UKFW'
p2076
aa(lp2077
S't_set/RFBS--537944900.jpg'
p2078
aS'RFBS'
p2079
aa(lp2080
S't_set/sd4r--1277742848.jpg'
p2081
aS'sd4r'
p2082
aa(lp2083
S't_set/yuk7.jpg'
p2084
aS'yuk7'
p2085
aa(lp2086
S't_set/DZQC--548002735.jpg'
p2087
aS'DZQC'
p2088
aa(lp2089
S't_set/jfws--1042314407.jpg'
p2090
aS'jfws'
p2091
aa(lp2092
S't_set/UQE3--224153898.jpg'
p2093
aS'UQE3'
p2094
aa(lp2095
S't_set/HYUG--473128889.jpg'
p2096
aS'HYUG'
p2097
aa(lp2098
S't_set/nazm.jpg'
p2099
aS'nazm'
p2100
aa(lp2101
S't_set/B2NH--1216164511.jpg'
p2102
aS'B2NH'
p2103
aa(lp2104
S't_set/4qka--1085800183.jpg'
p2105
aS'4qka'
p2106
aa(lp2107
S't_set/gctq--943479733.jpg'
p2108
aS'gctq'
p2109
aa(lp2110
S't_set/JEWS.jpg'
p2111
aS'JEWS'
p2112
aa(lp2113
S't_set/CZMB--336197234.jpg'
p2114
aS'CZMB'
p2115
aa(lp2116
S't_set/GXUF--385096965.jpg'
p2117
aS'GXUF'
p2118
aa(lp2119
S't_set/6SGD--147610508.jpg'
p2120
aS'6SGD'
p2121
aa(lp2122
S't_set/M8XK--652572793.jpg'
p2123
aS'M8XK'
p2124
aa(lp2125
S't_set/M8XK--688778511.jpg'
p2126
aS'M8XK'
p2127
aa(lp2128
S't_set/WM8V--526450808.jpg'
p2129
aS'WM8V'
p2130
aa(lp2131
S't_set/YPA2.jpg'
p2132
aS'YPA2'
p2133
aa(lp2134
S't_set/DZWM.jpg'
p2135
aS'DZWM'
p2136
aa(lp2137
S't_set/yqk7.jpg'
p2138
aS'yqk7'
p2139
aa(lp2140
S't_set/EVRG--1125183777.jpg'
p2141
aS'EVRG'
p2142
aa(lp2143
S't_set/wh8v.jpg'
p2144
aS'wh8v'
p2145
aa(lp2146
S't_set/MHYU.jpg'
p2147
aS'MHYU'
p2148
aa(lp2149
S't_set/e5rn.jpg'
p2150
aS'e5rn'
p2151
aa(lp2152
S't_set/QKBX.jpg'
p2153
aS'QKBX'
p2154
aa(lp2155
S't_set/SGDZ--553378382.jpg'
p2156
aS'SGDZ'
p2157
aa(lp2158
S't_set/QF3S.jpg'
p2159
aS'QF3S'
p2160
aa(lp2161
S't_set/g7tj--1015545814.jpg'
p2162
aS'g7tj'
p2163
aa(lp2164
S't_set/NCYU--948042016.jpg'
p2165
aS'NCYU'
p2166
aa(lp2167
S't_set/VG7U--360411057.jpg'
p2168
aS'VG7U'
p2169
aa(lp2170
S't_set/AXNH--254598974.jpg'
p2171
aS'AXNH'
p2172
aa(lp2173
S't_set/F4TE.jpg'
p2174
aS'F4TE'
p2175
aa(lp2176
S't_set/th5s.jpg'
p2177
aS'th5s'
p2178
aa(lp2179
S't_set/J6WH--1037766741.jpg'
p2180
aS'J6WH'
p2181
aa(lp2182
S't_set/PDZR--172740906.jpg'
p2183
aS'PDZR'
p2184
aa(lp2185
S't_set/UJF3--672185106.jpg'
p2186
aS'UJF3'
p2187
aa(lp2188
S't_set/YUJ6--23493651.jpg'
p2189
aS'YUJ6'
p2190
aa(lp2191
S't_set/ARN9.jpg'
p2192
aS'ARN9'
p2193
aa(lp2194
S't_set/vkgx--49864013.jpg'
p2195
aS'vkgx'
p2196
aa(lp2197
S't_set/6SGD--47029052.jpg'
p2198
aS'6SGD'
p2199
aa(lp2200
S't_set/9WMG.jpg'
p2201
aS'9WMG'
p2202
aa(lp2203
S't_set/sh5r--405343631.jpg'
p2204
aS'sh5r'
p2205
aa(lp2206
S't_set/EAXN.jpg'
p2207
aS'EAXN'
p2208
aa(lp2209
S't_set/EAXN--407593676.jpg'
p2210
aS'EAXN'
p2211
aa(lp2212
S't_set/EVRD--757973709.jpg'
p2213
aS'EVRD'
p2214
aa(lp2215
S't_set/PDZW.jpg'
p2216
aS'PDZW'
p2217
aa(lp2218
S't_set/5RFC--713722101.jpg'
p2219
aS'5RFC'
p2220
aa(lp2221
S't_set/awth--1151397463.jpg'
p2222
aS'awth'
p2223
aa(lp2224
S't_set/XTJ6--466121909.jpg'
p2225
aS'XTJ6'
p2226
aa(lp2227
S't_set/6WHD--384994256.jpg'
p2228
aS'6WHD'
p2229
aa(lp2230
S't_set/th6s.jpg'
p2231
aS'th6s'
p2232
aa(lp2233
S't_set/fbxp.jpg'
p2234
aS'fbxp'
p2235
aa(lp2236
S't_set/BXPJ--161944548.jpg'
p2237
aS'BXPJ'
p2238
aa(lp2239
S't_set/SG5U--443402204.jpg'
p2240
aS'SG5U'
p2241
aa(lp2242
S't_set/3pka.jpg'
p2243
aS'3pka'
p2244
aa(lp2245
S't_set/D5RF.jpg'
p2246
aS'D5RF'
p2247
aa(lp2248
S't_set/mbxk.jpg'
p2249
aS'mbxk'
p2250
aa(lp2251
S't_set/YUJ7--785499977.jpg'
p2252
aS'YUJ7'
p2253
aa(lp2254
S't_set/J9VS--949897115.jpg'
p2255
aS'J9VS'
p2256
aa(lp2257
S't_set/8UKF--24768292.jpg'
p2258
aS'8UKF'
p2259
aa(lp2260
S't_set/SNCY.jpg'
p2261
aS'SNCY'
p2262
aa(lp2263
S't_set/2NCZ--679129320.jpg'
p2264
aS'2NCZ'
p2265
aa(lp2266
S't_set/NH5V.jpg'
p2267
aS'NH5V'
p2268
aa(lp2269
S't_set/VSG4--1254232317.jpg'
p2270
aS'VSG4'
p2271
aa(lp2272
S't_set/8XKF.jpg'
p2273
aS'8XKF'
p2274
aa(lp2275
S't_set/bspa--171235018.jpg'
p2276
aS'bspa'
p2277
aa(lp2278
S't_set/VSG4--750250647.jpg'
p2279
aS'VSG4'
p2280
aa(lp2281
S't_set/rf3q.jpg'
p2282
aS'rf3q'
p2283
aa(lp2284
S't_set/9VRG--434258072.jpg'
p2285
aS'9VRG'
p2286
aa(lp2287
S't_set/SHDU--800635633.jpg'
p2288
aS'SHDU'
p2289
aa(lp2290
S't_set/DZQM--1281209090.jpg'
p2291
aS'DZQM'
p2292
aa(lp2293
S't_set/HDVR--232004692.jpg'
p2294
aS'HDVR'
p2295
aa(lp2296
S't_set/YVG8.jpg'
p2297
aS'YVG8'
p2298
aa(lp2299
S't_set/QM8X--1075105279.jpg'
p2300
aS'QM8X'
p2301
aa(lp2302
S't_set/KF4T.jpg'
p2303
aS'KF4T'
p2304
aa(lp2305
S't_set/rg4q.jpg'
p2306
aS'rg4q'
p2307
aa(lp2308
S't_set/bypj--209385280.jpg'
p2309
aS'bypj'
p2310
aa(lp2311
S't_set/UJF3--240978149.jpg'
p2312
aS'UJF3'
p2313
aa(lp2314
S't_set/ujf3.jpg'
p2315
aS'ujf3'
p2316
aa(lp2317
S't_set/fxth.jpg'
p2318
aS'fxth'
p2319
aa(lp2320
S't_set/thdu.jpg'
p2321
aS'thdu'
p2322
aa(lp2323
S't_set/6VGC--1233404404.jpg'
p2324
aS'6VGC'
p2325
aa(lp2326
S't_set/hyvg--294947727.jpg'
p2327
aS'hyvg'
p2328
aa(lp2329
S't_set/WNHY.jpg'
p2330
aS'WNHY'
p2331
aa(lp2332
S't_set/PB2N--836340563.jpg'
p2333
aS'PB2N'
p2334
aa(lp2335
S't_set/8xja.jpg'
p2336
aS'8xja'
p2337
aa(lp2338
S't_set/AWMH--592928382.jpg'
p2339
aS'AWMH'
p2340
aa(lp2341
S't_set/RF4T.jpg'
p2342
aS'RF4T'
p2343
aa(lp2344
S't_set/BSPD--22916648.jpg'
p2345
aS'BSPD'
p2346
aa(lp2347
S't_set/G4QF--835921351.jpg'
p2348
aS'G4QF'
p2349
aa(lp2350
S't_set/KFXT--158587580.jpg'
p2351
aS'KFXT'
p2352
aa(lp2353
S't_set/F6TH--1072256088.jpg'
p2354
aS'F6TH'
p2355
aa(lp2356
S't_set/G7TH--229577168.jpg'
p2357
aS'G7TH'
p2358
aa(lp2359
S't_set/PJZW--1071736433.jpg'
p2360
aS'PJZW'
p2361
aa(lp2362
S't_set/6VHD.jpg'
p2363
aS'6VHD'
p2364
aa(lp2365
S't_set/J6TH.jpg'
p2366
aS'J6TH'
p2367
aa(lp2368
S't_set/peaw.jpg'
p2369
aS'peaw'
p2370
aa(lp2371
S't_set/NAWM--760472126.jpg'
p2372
aS'NAWM'
p2373
aa(lp2374
S't_set/RD4Q.jpg'
p2375
aS'RD4Q'
p2376
aa(lp2377
S't_set/QEAX--1108331374.jpg'
p2378
aS'QEAX'
p2379
aa(lp2380
S't_set/axj9--341815157.jpg'
p2381
aS'axj9'
p2382
aa(lp2383
S't_set/JZVM.jpg'
p2384
aS'JZVM'
p2385
aa(lp2386
S't_set/G5FC.jpg'
p2387
aS'G5FC'
p2388
aa(lp2389
S't_set/QFBS.jpg'
p2390
aS'QFBS'
p2391
aa(lp2392
S't_set/sgcy--1285351561.jpg'
p2393
aS'sgcy'
p2394
aa(lp2395
S't_set/RF3Q.jpg'
p2396
aS'RF3Q'
p2397
aa(lp2398
S't_set/ZWM8.jpg'
p2399
aS'ZWM8'
p2400
aa(lp2401
S't_set/SD4R.jpg'
p2402
aS'SD4R'
p2403
aa(lp2404
S't_set/YKAX--567066578.jpg'
p2405
aS'YKAX'
p2406
aa(lp2407
S't_set/qb2p.jpg'
p2408
aS'qb2p'
p2409
aa(lp2410
S't_set/9VSG--569705984.jpg'
p2411
aS'9VSG'
p2412
aa(lp2413
S't_set/earn.jpg'
p2414
aS'earn'
p2415
aa(lp2416
S't_set/E2PD.jpg'
p2417
aS'E2PD'
p2418
aa(lp2419
S't_set/2RD4--797844910.jpg'
p2420
aS'2RD4'
p2421
aa(lp2422
S't_set/H9VK--866797586.jpg'
p2423
aS'H9VK'
p2424
aa(lp2425
S't_set/CTPD.jpg'
p2426
aS'CTPD'
p2427
aa(lp2428
S't_set/f3te--1155087468.jpg'
p2429
aS'f3te'
p2430
aa(lp2431
S't_set/m8xk.jpg'
p2432
aS'm8xk'
p2433
aa(lp2434
S't_set/PKAW--122043849.jpg'
p2435
aS'PKAW'
p2436
aa(lp2437
S't_set/ASN9--668237226.jpg'
p2438
aS'ASN9'
p2439
aa(lp2440
S't_set/URF3.jpg'
p2441
aS'URF3'
p2442
aa(lp2443
S't_set/J6VH--488153784.jpg'
p2444
aS'J6VH'
p2445
aa(lp2446
S't_set/bxna.jpg'
p2447
aS'bxna'
p2448
aa(lp2449
S't_set/FWSE--745012005.jpg'
p2450
aS'FWSE'
p2451
aa(lp2452
S't_set/UJEW--102350038.jpg'
p2453
aS'UJEW'
p2454
aa(lp2455
S't_set/bxnj--1063391068.jpg'
p2456
aS'bxnj'
p2457
aa(lp2458
S't_set/NCZQ--1195027522.jpg'
p2459
aS'NCZQ'
p2460
aa(lp2461
S't_set/cuqe.jpg'
p2462
aS'cuqe'
p2463
aa(lp2464
S't_set/bxna--84483329.jpg'
p2465
aS'bxna'
p2466
aa(lp2467
S't_set/F6SG.jpg'
p2468
aS'F6SG'
p2469
aa(lp2470
S't_set/NJ6V--1148264741.jpg'
p2471
aS'NJ6V'
p2472
aa(lp2473
S't_set/qe2p--991361359.jpg'
p2474
aS'qe2p'
p2475
aa(lp2476
S't_set/MBXK--776668784.jpg'
p2477
aS'MBXK'
p2478
aa(lp2479
S't_set/QF3P--584457937.jpg'
p2480
aS'QF3P'
p2481
aa(lp2482
S't_set/D2RC--1151051868.jpg'
p2483
aS'D2RC'
p2484
aa(lp2485
S't_set/5SGC--515143103.jpg'
p2486
aS'5SGC'
p2487
aa(lp2488
S't_set/N9WM--96914874.jpg'
p2489
aS'N9WM'
p2490
aa(lp2491
S't_set/VG7U--810816267.jpg'
p2492
aS'VG7U'
p2493
aa(lp2494
S't_set/SGCU.jpg'
p2495
aS'SGCU'
p2496
aa(lp2497
S't_set/GDUQ--1108188317.jpg'
p2498
aS'GDUQ'
p2499
aa(lp2500
S't_set/xpjz.jpg'
p2501
aS'xpjz'
p2502
aa(lp2503
S't_set/qk7x--310637645.jpg'
p2504
aS'qk7x'
p2505
aa(lp2506
S't_set/K7WH--1256557639.jpg'
p2507
aS'K7WH'
p2508
aa(lp2509
S't_set/dzqk.jpg'
p2510
aS'dzqk'
p2511
aa(lp2512
S't_set/nczq--68832109.jpg'
p2513
aS'nczq'
p2514
aa(lp2515
S't_set/VK7W.jpg'
p2516
aS'VK7W'
p2517
aa(lp2518
S't_set/wjev--149980141.jpg'
p2519
aS'wjev'
p2520
aa(lp2521
S't_set/nczm.jpg'
p2522
aS'nczm'
p2523
aa(lp2524
S't_set/hyvk.jpg'
p2525
aS'hyvk'
p2526
aa(lp2527
S't_set/qear--201785254.jpg'
p2528
aS'qear'
p2529
aa(lp2530
S't_set/sd4r--732736484.jpg'
p2531
aS'sd4r'
p2532
aa(lp2533
S't_set/XN9W.jpg'
p2534
aS'XN9W'
p2535
aa(lp2536
S't_set/dzmc.jpg'
p2537
aS'dzmc'
p2538
aa(lp2539
S't_set/pazm.jpg'
p2540
aS'pazm'
p2541
aa(lp2542
S't_set/BXJA.jpg'
p2543
aS'BXJA'
p2544
aa(lp2545
S't_set/3pjz--48776986.jpg'
p2546
aS'3pjz'
p2547
aa(lp2548
S't_set/xnhy.jpg'
p2549
aS'xnhy'
p2550
aa(lp2551
S't_set/MBYP.jpg'
p2552
aS'MBYP'
p2553
aa(lp2554
S't_set/HDUQ--1252479157.jpg'
p2555
aS'HDUQ'
p2556
aa(lp2557
S't_set/N9YM.jpg'
p2558
aS'N9YM'
p2559
aa(lp2560
S't_set/2RC3.jpg'
p2561
aS'2RC3'
p2562
aa(lp2563
S't_set/H5RG--305984558.jpg'
p2564
aS'H5RG'
p2565
aa(lp2566
S't_set/HDUR--769498404.jpg'
p2567
aS'HDUR'
p2568
aa(lp2569
S't_set/MGXU.jpg'
p2570
aS'MGXU'
p2571
aa(lp2572
S't_set/6VH8--898075134.jpg'
p2573
aS'6VH8'
p2574
aa(lp2575
S't_set/D2RC--63626988.jpg'
p2576
aS'D2RC'
p2577
aa(lp2578
S't_set/7UJE.jpg'
p2579
aS'7UJE'
p2580
aa(lp2581
S't_set/VKF3--990449358.jpg'
p2582
aS'VKF3'
p2583
aa(lp2584
S't_set/d4qk.jpg'
p2585
aS'd4qk'
p2586
aa(lp2587
S't_set/SDUQ.jpg'
p2588
aS'SDUQ'
p2589
aa(lp2590
S't_set/YVK7--878389721.jpg'
p2591
aS'YVK7'
p2592
aa(lp2593
S't_set/QE2R.jpg'
p2594
aS'QE2R'
p2595
aa(lp2596
S't_set/HDUR--347795036.jpg'
p2597
aS'HDUR'
p2598
aa(lp2599
S't_set/ARMB.jpg'
p2600
aS'ARMB'
p2601
aa(lp2602
S't_set/EVRD--840358405.jpg'
p2603
aS'EVRD'
p2604
aa(lp2605
S't_set/g8uq.jpg'
p2606
aS'g8uq'
p2607
aa(lp2608
S't_set/YGUJ.jpg'
p2609
aS'YGUJ'
p2610
aa(lp2611
S't_set/CZMB--1125496923.jpg'
p2612
aS'CZMB'
p2613
aa(lp2614
S't_set/RCZQ--697654117.jpg'
p2615
aS'RCZQ'
p2616
aa(lp2617
S't_set/F6SP--1000689348.jpg'
p2618
aS'F6SP'
p2619
aa(lp2620
S't_set/WTH5.jpg'
p2621
aS'WTH5'
p2622
aa(lp2623
S't_set/ZRCY--578147388.jpg'
p2624
aS'ZRCY'
p2625
aa(lp2626
S't_set/F4TE--780237223.jpg'
p2627
aS'F4TE'
p2628
aa(lp2629
S't_set/SHDZ.jpg'
p2630
aS'SHDZ'
p2631
aa(lp2632
S't_set/8xkf.jpg'
p2633
aS'8xkf'
p2634
aa(lp2635
S't_set/wth5--212421973.jpg'
p2636
aS'wth5'
p2637
aa(lp2638
S't_set/UF6T.jpg'
p2639
aS'UF6T'
p2640
aa(lp2641
S't_set/7TQE--1052590002.jpg'
p2642
aS'7TQE'
p2643
aa(lp2644
S't_set/7UJE--711849941.jpg'
p2645
aS'7UJE'
p2646
aa(lp2647
S't_set/9wsg--781492752.jpg'
p2648
aS'9wsg'
p2649
aa(lp2650
S't_set/K7WH.jpg'
p2651
aS'K7WH'
p2652
aa(lp2653
S't_set/SG4U.jpg'
p2654
aS'SG4U'
p2655
aa(lp2656
S't_set/byka.jpg'
p2657
aS'byka'
p2658
aa(lp2659
S't_set/YPJ7--381832223.jpg'
p2660
aS'YPJ7'
p2661
aa(lp2662
S't_set/gczq.jpg'
p2663
aS'gczq'
p2664
aa(lp2665
S't_set/HYUG.jpg'
p2666
aS'HYUG'
p2667
aa(lp2668
S't_set/8VKF--655676629.jpg'
p2669
aS'8VKF'
p2670
aa(lp2671
S't_set/SPDZ--577090305.jpg'
p2672
aS'SPDZ'
p2673
aa(lp2674
S't_set/PAXN--625350244.jpg'
p2675
aS'PAXN'
p2676
aa(lp2677
S't_set/E2RC--99323997.jpg'
p2678
aS'E2RC'
p2679
aa(lp2680
S't_set/JAWM--585865400.jpg'
p2681
aS'JAWM'
p2682
aa(lp2683
S't_set/vgdu.jpg'
p2684
aS'vgdu'
p2685
aa(lp2686
S't_set/TPAZ--485183513.jpg'
p2687
aS'TPAZ'
p2688
aa(lp2689
S't_set/YUK7--50733959.jpg'
p2690
aS'YUK7'
p2691
aa(lp2692
S't_set/ZNCY--323030519.jpg'
p2693
aS'ZNCY'
p2694
aa(lp2695
S't_set/WSG4--1128190970.jpg'
p2696
aS'WSG4'
p2697
aa(lp2698
S't_set/BXKA--1124488183.jpg'
p2699
aS'BXKA'
p2700
aa(lp2701
S't_set/ZQKB--1144615544.jpg'
p2702
aS'ZQKB'
p2703
aa(lp2704
S't_set/vg8u--266132992.jpg'
p2705
aS'vg8u'
p2706
aa(lp2707
S't_set/9VMG--679616594.jpg'
p2708
aS'9VMG'
p2709
aa(lp2710
S't_set/2NHZ--505021950.jpg'
p2711
aS'2NHZ'
p2712
aa(lp2713
S't_set/J9VR.jpg'
p2714
aS'J9VR'
p2715
aa(lp2716
S't_set/g5uf.jpg'
p2717
aS'g5uf'
p2718
aa(lp2719
S't_set/2rc3--512587026.jpg'
p2720
aS'2rc3'
p2721
aa(lp2722
S't_set/G7TQ.jpg'
p2723
aS'G7TQ'
p2724
aa(lp2725
S't_set/2NDZ--971936526.jpg'
p2726
aS'2NDZ'
p2727
aa(lp2728
S't_set/RGCY--1230329486.jpg'
p2729
aS'RGCY'
p2730
aa(lp2731
S't_set/XNAZ--106867050.jpg'
p2732
aS'XNAZ'
p2733
aa(lp2734
S't_set/UK7T.jpg'
p2735
aS'UK7T'
p2736
aa(lp2737
S't_set/WH9V--749871242.jpg'
p2738
aS'WH9V'
p2739
aa(lp2740
S't_set/2NJZ--169709414.jpg'
p2741
aS'2NJZ'
p2742
aa(lp2743
S't_set/QFBX.jpg'
p2744
aS'QFBX'
p2745
aa(lp2746
S't_set/RF3P--1192237340.jpg'
p2747
aS'RF3P'
p2748
aa(lp2749
S't_set/bypj--162414066.jpg'
p2750
aS'bypj'
p2751
aa(lp2752
S't_set/XJEW.jpg'
p2753
aS'XJEW'
p2754
aa(lp2755
S't_set/vgct.jpg'
p2756
aS'vgct'
p2757
aa(lp2758
S't_set/ZMBY--107344189.jpg'
p2759
aS'ZMBY'
p2760
aa(lp2761
S't_set/4qkb.jpg'
p2762
aS'4qkb'
p2763
aa(lp2764
S't_set/H8UK--711479063.jpg'
p2765
aS'H8UK'
p2766
aa(lp2767
S't_set/5ugc.jpg'
p2768
aS'5ugc'
p2769
aa(lp2770
S't_set/N9ZM--627699513.jpg'
p2771
aS'N9ZM'
p2772
aa(lp2773
S't_set/D2NC.jpg'
p2774
aS'D2NC'
p2775
aa(lp2776
S't_set/zvh8--341650375.jpg'
p2777
aS'zvh8'
p2778
aa(lp2779
S't_set/ujev.jpg'
p2780
aS'ujev'
p2781
aa(lp2782
S't_set/g4tf--288881632.jpg'
p2783
aS'g4tf'
p2784
aa(lp2785
S't_set/TEAS.jpg'
p2786
aS'TEAS'
p2787
aa(lp2788
S't_set/F6SH.jpg'
p2789
aS'F6SH'
p2790
aa(lp2791
S't_set/ZVK7--427757313.jpg'
p2792
aS'ZVK7'
p2793
aa(lp2794
S't_set/FBSN--186070562.jpg'
p2795
aS'FBSN'
p2796
aa(lp2797
S't_set/UGCT.jpg'
p2798
aS'UGCT'
p2799
aa(lp2800
S't_set/VSD4--1073541220.jpg'
p2801
aS'VSD4'
p2802
aa(lp2803
S't_set/pdzq.jpg'
p2804
aS'pdzq'
p2805
aa(lp2806
S't_set/xnaw.jpg'
p2807
aS'xnaw'
p2808
aa(lp2809
S't_set/BXNA--661642302.jpg'
p2810
aS'BXNA'
p2811
aa(lp2812
S't_set/E2RC.jpg'
p2813
aS'E2RC'
p2814
aa(lp2815
S't_set/G4RF--703445026.jpg'
p2816
aS'G4RF'
p2817
aa(lp2818
S't_set/KAWN--671514018.jpg'
p2819
aS'KAWN'
p2820
aa(lp2821
S't_set/6THD.jpg'
p2822
aS'6THD'
p2823
aa(lp2824
S't_set/XN9V--533123774.jpg'
p2825
aS'XN9V'
p2826
aa(lp2827
S't_set/MCYP.jpg'
p2828
aS'MCYP'
p2829
aa(lp2830
S't_set/XJFW.jpg'
p2831
aS'XJFW'
p2832
aa(lp2833
S't_set/ymgx--1055500831.jpg'
p2834
aS'ymgx'
p2835
aa(lp2836
S't_set/RCZQ--329735117.jpg'
p2837
aS'RCZQ'
p2838
aa(lp2839
S't_set/teas.jpg'
p2840
aS'teas'
p2841
aa(lp2842
S't_set/ZWM8--938608062.jpg'
p2843
aS'ZWM8'
p2844
aa(lp2845
S't_set/GCZQ--1243029220.jpg'
p2846
aS'GCZQ'
p2847
aa(lp2848
S't_set/armb--1202131891.jpg'
p2849
aS'armb'
p2850
aa(lp2851
S't_set/2NCZ--737299805.jpg'
p2852
aS'2NCZ'
p2853
aa(lp2854
S't_set/5RGC--1150770357.jpg'
p2855
aS'5RGC'
p2856
aa(lp2857
S't_set/N9ZM.jpg'
p2858
aS'N9ZM'
p2859
aa(lp2860
S't_set/GDZQ--317207318.jpg'
p2861
aS'GDZQ'
p2862
aa(lp2863
S't_set/KAWJ--1284111779.jpg'
p2864
aS'KAWJ'
p2865
aa(lp2866
S't_set/PB2N--596694596.jpg'
p2867
aS'PB2N'
p2868
aa(lp2869
S't_set/MBXJ--1096417298.jpg'
p2870
aS'MBXJ'
p2871
aa(lp2872
S't_set/sear.jpg'
p2873
aS'sear'
p2874
aa(lp2875
S't_set/HDVR--528077306.jpg'
p2876
aS'HDVR'
p2877
aa(lp2878
S't_set/J9WM--838469871.jpg'
p2879
aS'J9WM'
p2880
aa(lp2881
S't_set/9vmg.jpg'
p2882
aS'9vmg'
p2883
aa(lp2884
S't_set/H8UQ.jpg'
p2885
aS'H8UQ'
p2886
aa(lp2887
S't_set/YVK7.jpg'
p2888
aS'YVK7'
p2889
aa(lp2890
S't_set/GYUJ--376681452.jpg'
p2891
aS'GYUJ'
p2892
aa(lp2893
S't_set/DVRF--892850194.jpg'
p2894
aS'DVRF'
p2895
aa(lp2896
S't_set/QB2P.jpg'
p2897
aS'QB2P'
p2898
aa(lp2899
S't_set/VRC4.jpg'
p2900
aS'VRC4'
p2901
aa(lp2902
S't_set/GDZQ--607410136.jpg'
p2903
aS'GDZQ'
p2904
aa(lp2905
S't_set/rc3q.jpg'
p2906
aS'rc3q'
p2907
aa(lp2908
S't_set/CZMB.jpg'
p2909
aS'CZMB'
p2910
aa(lp2911
S't_set/YPBX.jpg'
p2912
aS'YPBX'
p2913
aa(lp2914
S't_set/BTPD.jpg'
p2915
aS'BTPD'
p2916
aa(lp2917
S't_set/SHDU.jpg'
p2918
aS'SHDU'
p2919
aa(lp2920
S't_set/xkaw.jpg'
p2921
aS'xkaw'
p2922
aa(lp2923
S't_set/zqby--360995027.jpg'
p2924
aS'zqby'
p2925
aa(lp2926
S't_set/KFXT.jpg'
p2927
aS'KFXT'
p2928
aa(lp2929
S't_set/ZMCY--1072625144.jpg'
p2930
aS'ZMCY'
p2931
aa(lp2932
S't_set/WM8Y.jpg'
p2933
aS'WM8Y'
p2934
aa(lp2935
S't_set/FCTP--1030344744.jpg'
p2936
aS'FCTP'
p2937
aa(lp2938
S't_set/WN9Y--988837610.jpg'
p2939
aS'WN9Y'
p2940
aa(lp2941
S't_set/8urf.jpg'
p2942
aS'8urf'
p2943
aa(lp2944
S't_set/UJ7T--706992716.jpg'
p2945
aS'UJ7T'
p2946
aa(lp2947
S't_set/5rmb.jpg'
p2948
aS'5rmb'
p2949
aa(lp2950
S't_set/SGCY--1019141188.jpg'
p2951
aS'SGCY'
p2952
aa(lp2953
S't_set/JZVH.jpg'
p2954
aS'JZVH'
p2955
aa(lp2956
S't_set/CYUK--523882397.jpg'
p2957
aS'CYUK'
p2958
aa(lp2959
S't_set/3pda.jpg'
p2960
aS'3pda'
p2961
aa(lp2962
S't_set/GXUJ--989864481.jpg'
p2963
aS'GXUJ'
p2964
aa(lp2965
S't_set/6VGD.jpg'
p2966
aS'6VGD'
p2967
aa(lp2968
S't_set/KAWM--326670760.jpg'
p2969
aS'KAWM'
p2970
aa(lp2971
S't_set/VRF3.jpg'
p2972
aS'VRF3'
p2973
aa(lp2974
S't_set/XN9Y--897241461.jpg'
p2975
aS'XN9Y'
p2976
aa(lp2977
S't_set/QK7W.jpg'
p2978
aS'QK7W'
p2979
aa(lp2980
S't_set/8UJF--209434125.jpg'
p2981
aS'8UJF'
p2982
aa(lp2983
S't_set/SEAR--1006011544.jpg'
p2984
aS'SEAR'
p2985
aa(lp2986
S't_set/KG4T.jpg'
p2987
aS'KG4T'
p2988
aa(lp2989
S't_set/VKG4.jpg'
p2990
aS'VKG4'
p2991
aa(lp2992
S't_set/gxtf--1096206067.jpg'
p2993
aS'gxtf'
p2994
aa(lp2995
S't_set/wth5.jpg'
p2996
aS'wth5'
p2997
aa(lp2998
S't_set/2rd4--797949734.jpg'
p2999
aS'2rd4'
p3000
aa(lp3001
S't_set/ypaz.jpg'
p3002
aS'ypaz'
p3003
aa(lp3004
S't_set/H8UR--468581312.jpg'
p3005
aS'H8UR'
p3006
aa(lp3007
S't_set/qk8x.jpg'
p3008
aS'qk8x'
p3009
aa(lp3010
S't_set/tqe2.jpg'
p3011
aS'tqe2'
p3012
aa(lp3013
S't_set/2PJZ--697761450.jpg'
p3014
aS'2PJZ'
p3015
aa(lp3016
S't_set/XUJ6.jpg'
p3017
aS'XUJ6'
p3018
aa(lp3019
S't_set/bspd--372125318.jpg'
p3020
aS'bspd'
p3021
aa(lp3022
S't_set/GXTH.jpg'
p3023
aS'GXTH'
p3024
aa(lp3025
S't_set/WSG4--902310490.jpg'
p3026
aS'WSG4'
p3027
aa(lp3028
S't_set/YKGX.jpg'
p3029
aS'YKGX'
p3030
aa(lp3031
S't_set/2RCZ--336296544.jpg'
p3032
aS'2RCZ'
p3033
aa(lp3034
S't_set/pd2r.jpg'
p3035
aS'pd2r'
p3036
aa(lp3037
S't_set/2RD4--413133635.jpg'
p3038
aS'2RD4'
p3039
aa(lp3040
S't_set/dvrc--1075139311.jpg'
p3041
aS'dvrc'
p3042
aa(lp3043
S't_set/qeax.jpg'
p3044
aS'qeax'
p3045
aa(lp3046
S't_set/DUQE--263219365.jpg'
p3047
aS'DUQE'
p3048
aa(lp3049
S't_set/4QMB.jpg'
p3050
aS'4QMB'
p3051
aa(lp3052
S't_set/qkbx.jpg'
p3053
aS'qkbx'
p3054
aa(lp3055
S't_set/SNDZ.jpg'
p3056
aS'SNDZ'
p3057
aa(lp3058
S't_set/uj6v.jpg'
p3059
aS'uj6v'
p3060
aa(lp3061
S't_set/E2RD--38308689.jpg'
p3062
aS'E2RD'
p3063
aa(lp3064
S't_set/g7tp.jpg'
p3065
aS'g7tp'
p3066
aa(lp3067
S't_set/3SDA--92887123.jpg'
p3068
aS'3SDA'
p3069
aa(lp3070
S't_set/RNCY--187383.jpg'
p3071
aS'RNCY'
p3072
aa(lp3073
S't_set/VK8X.jpg'
p3074
aS'VK8X'
p3075
aa(lp3076
S't_set/bxpa--1144553756.jpg'
p3077
aS'bxpa'
p3078
aa(lp3079
S't_set/NJ6V--767273116.jpg'
p3080
aS'NJ6V'
p3081
aa(lp3082
S't_set/YUK7.jpg'
p3083
aS'YUK7'
p3084
aa(lp3085
S't_set/vrc4.jpg'
p3086
aS'vrc4'
p3087
aa(lp3088
S't_set/TE5R--962194502.jpg'
p3089
aS'TE5R'
p3090
aa(lp3091
S't_set/4qeb.jpg'
p3092
aS'4qeb'
p3093
aa(lp3094
S't_set/F6TP.jpg'
p3095
aS'F6TP'
p3096
aa(lp3097
S't_set/tpd2--1067469577.jpg'
p3098
aS'tpd2'
p3099
aa(lp3100
S't_set/WSG4.jpg'
p3101
aS'WSG4'
p3102
aa(lp3103
S't_set/awmh.jpg'
p3104
aS'awmh'
p3105
aa(lp3106
S't_set/E2RC--311945779.jpg'
p3107
aS'E2RC'
p3108
aa(lp3109
S't_set/KBXT--794458311.jpg'
p3110
aS'KBXT'
p3111
aa(lp3112
S't_set/E5RF--229030730.jpg'
p3113
aS'E5RF'
p3114
aa(lp3115
S't_set/VG7U--1070479322.jpg'
p3116
aS'VG7U'
p3117
aa(lp3118
S't_set/7uje.jpg'
p3119
aS'7uje'
p3120
aa(lp3121
S't_set/H5SG--317068586.jpg'
p3122
aS'H5SG'
p3123
aa(lp3124
S't_set/ykgx--139572079.jpg'
p3125
aS'ykgx'
p3126
aa(lp3127
S't_set/2NDZ--1132804462.jpg'
p3128
aS'2NDZ'
p3129
aa(lp3130
S't_set/UJF3.jpg'
p3131
aS'UJF3'
p3132
aa(lp3133
S't_set/D4QM--616057167.jpg'
p3134
aS'D4QM'
p3135
aa(lp3136
S't_set/DZQK--25854650.jpg'
p3137
aS'DZQK'
p3138
aa(lp3139
S't_set/qk7w.jpg'
p3140
aS'qk7w'
p3141
aa(lp3142
S't_set/DZQM--26526999.jpg'
p3143
aS'DZQM'
p3144
aa(lp3145
S't_set/G5UF.jpg'
p3146
aS'G5UF'
p3147
aa(lp3148
S't_set/TPB2--933982149.jpg'
p3149
aS'TPB2'
p3150
aa(lp3151
S't_set/8XJ9.jpg'
p3152
aS'8XJ9'
p3153
aa(lp3154
S't_set/ujfw--330366521.jpg'
p3155
aS'ujfw'
p3156
aa(lp3157
S't_set/5RGC.jpg'
p3158
aS'5RGC'
p3159
aa(lp3160
S't_set/H9VR.jpg'
p3161
aS'H9VR'
p3162
aa(lp3163
S't_set/QBXN--981905920.jpg'
p3164
aS'QBXN'
p3165
aa(lp3166
S't_set/C4QK.jpg'
p3167
aS'C4QK'
p3168
aa(lp3169
S't_set/BXN9.jpg'
p3170
aS'BXN9'
p3171
aa(lp3172
S't_set/B2NH.jpg'
p3173
aS'B2NH'
p3174
aa(lp3175
S't_set/WNH5.jpg'
p3176
aS'WNH5'
p3177
aa(lp3178
S't_set/3pea--894780968.jpg'
p3179
aS'3pea'
p3180
aa(lp3181
S't_set/zqmb.jpg'
p3182
aS'zqmb'
p3183
aa(lp3184
S't_set/VM8X.jpg'
p3185
aS'VM8X'
p3186
aa(lp3187
S't_set/rfcy--530793271.jpg'
p3188
aS'rfcy'
p3189
aa(lp3190
S't_set/BXNH--714069086.jpg'
p3191
aS'BXNH'
p3192
aa(lp3193
S't_set/ncyp.jpg'
p3194
aS'ncyp'
p3195
aa(lp3196
S't_set/darm--677560430.jpg'
p3197
aS'darm'
p3198
aa(lp3199
S't_set/nhzv.jpg'
p3200
aS'nhzv'
p3201
aa(lp3202
S't_set/2NDZ--908441214.jpg'
p3203
aS'2NDZ'
p3204
aa(lp3205
S't_set/XTH6--841624047.jpg'
p3206
aS'XTH6'
p3207
aa(lp3208
S't_set/3PEA--796066590.jpg'
p3209
aS'3PEA'
p3210
aa(lp3211
S't_set/ctpb--722156055.jpg'
p3212
aS'ctpb'
p3213
aa(lp3214
S't_set/e5rm.jpg'
p3215
aS'e5rm'
p3216
aa(lp3217
S't_set/tfbs.jpg'
p3218
aS'tfbs'
p3219
aa(lp3220
S't_set/HDZR.jpg'
p3221
aS'HDZR'
p3222
aa(lp3223
S't_set/MG5U.jpg'
p3224
aS'MG5U'
p3225
aa(lp3226
S't_set/ZMCY.jpg'
p3227
aS'ZMCY'
p3228
aa(lp3229
S't_set/PBXN.jpg'
p3230
aS'PBXN'
p3231
aa(lp3232
S't_set/6vh8.jpg'
p3233
aS'6vh8'
p3234
aa(lp3235
S't_set/tj6s.jpg'
p3236
aS'tj6s'
p3237
aa(lp3238
S't_set/PE2N--547318710.jpg'
p3239
aS'PE2N'
p3240
aa(lp3241
S't_set/ZQC3--789866969.jpg'
p3242
aS'ZQC3'
p3243
aa(lp3244
S't_set/pjzw.jpg'
p3245
aS'pjzw'
p3246
aa(lp3247
S't_set/ugct--765510510.jpg'
p3248
aS'ugct'
p3249
aa(lp3250
S't_set/PJZV.jpg'
p3251
aS'PJZV'
p3252
aa(lp3253
S't_set/PJAW.jpg'
p3254
aS'PJAW'
p3255
aa(lp3256
S't_set/8xj9.jpg'
p3257
aS'8xj9'
p3258
aa(lp3259
S't_set/FWSE.jpg'
p3260
aS'FWSE'
p3261
aa(lp3262
S't_set/TPD2--482958557.jpg'
p3263
aS'TPD2'
p3264
aa(lp3265
S't_set/H9VR--290229545.jpg'
p3266
aS'H9VR'
p3267
aa(lp3268
S't_set/DZQM--952146028.jpg'
p3269
aS'DZQM'
p3270
aa(lp3271
S't_set/4teb.jpg'
p3272
aS'4teb'
p3273
aa(lp3274
S't_set/WMGX--999411441.jpg'
p3275
aS'WMGX'
p3276
aa(lp3277
S't_set/durc.jpg'
p3278
aS'durc'
p3279
aa(lp3280
S't_set/YUF7.jpg'
p3281
aS'YUF7'
p3282
aa(lp3283
S't_set/NH6V--1064341897.jpg'
p3284
aS'NH6V'
p3285
aa(lp3286
S't_set/8UKF--1066202936.jpg'
p3287
aS'8UKF'
p3288
aa(lp3289
S't_set/WHEV--656110888.jpg'
p3290
aS'WHEV'
p3291
aa(lp3292
S't_set/WJ9V.jpg'
p3293
aS'WJ9V'
p3294
aa(lp3295
S't_set/UF7T--1272404310.jpg'
p3296
aS'UF7T'
p3297
aa(lp3298
S't_set/7THE--1180481876.jpg'
p3299
aS'7THE'
p3300
aa(lp3301
S't_set/bypa.jpg'
p3302
aS'bypa'
p3303
aa(lp3304
S't_set/QB2P--151587379.jpg'
p3305
aS'QB2P'
p3306
aa(lp3307
S't_set/F6SG--1199753771.jpg'
p3308
aS'F6SG'
p3309
aa(lp3310
S't_set/CYUJ--130686031.jpg'
p3311
aS'CYUJ'
p3312
aa(lp3313
S't_set/tpd2.jpg'
p3314
aS'tpd2'
p3315
aa(lp3316
S't_set/6SGD.jpg'
p3317
aS'6SGD'
p3318
aa(lp3319
S't_set/EBXN--1009390384.jpg'
p3320
aS'EBXN'
p3321
aa(lp3322
S't_set/D4RF--1039690816.jpg'
p3323
aS'D4RF'
p3324
aa(lp3325
S't_set/M8XK--919600239.jpg'
p3326
aS'M8XK'
p3327
aa(lp3328
S't_set/CYMB--1076542396.jpg'
p3329
aS'CYMB'
p3330
aa(lp3331
S't_set/dzrm--1140662043.jpg'
p3332
aS'dzrm'
p3333
aa(lp3334
S't_set/9VKG.jpg'
p3335
aS'9VKG'
p3336
aa(lp3337
S't_set/8ujf.jpg'
p3338
aS'8ujf'
p3339
aa(lp3340
S't_set/F7TH.jpg'
p3341
aS'F7TH'
p3342
aa(lp3343
S't_set/YPJZ--1231610435.jpg'
p3344
aS'YPJZ'
p3345
aa(lp3346
S't_set/SGCZ.jpg'
p3347
aS'SGCZ'
p3348
aa(lp3349
S't_set/SG4T.jpg'
p3350
aS'SG4T'
p3351
aa(lp3352
S't_set/PJAW--221971520.jpg'
p3353
aS'PJAW'
p3354
aa(lp3355
S't_set/8uqf.jpg'
p3356
aS'8uqf'
p3357
aa(lp3358
S't_set/4RMB.jpg'
p3359
aS'4RMB'
p3360
aa(lp3361
S't_set/rc4q--487159190.jpg'
p3362
aS'rc4q'
p3363
aa(lp3364
S't_set/J6SH.jpg'
p3365
aS'J6SH'
p3366
aa(lp3367
S't_set/SE5R--385700465.jpg'
p3368
aS'SE5R'
p3369
aa(lp3370
S't_set/uf6t--1109482431.jpg'
p3371
aS'uf6t'
p3372
aa(lp3373
S't_set/EVRF--1129006352.jpg'
p3374
aS'EVRF'
p3375
aa(lp3376
S't_set/EVRD--361999441.jpg'
p3377
aS'EVRD'
p3378
aa(lp3379
S't_set/EVRD--965974350.jpg'
p3380
aS'EVRD'
p3381
aa(lp3382
S't_set/RD4Q--869121081.jpg'
p3383
aS'RD4Q'
p3384
aa(lp3385
S't_set/FCYP.jpg'
p3386
aS'FCYP'
p3387
aa(lp3388
S't_set/AZNH.jpg'
p3389
aS'AZNH'
p3390
aa(lp3391
S't_set/jfws.jpg'
p3392
aS'jfws'
p3393
aa(lp3394
S't_set/dzwm.jpg'
p3395
aS'dzwm'
p3396
aa(lp3397
S't_set/wmh5--1224773256.jpg'
p3398
aS'wmh5'
p3399
aa(lp3400
S't_set/G4TF--303317248.jpg'
p3401
aS'G4TF'
p3402
aa(lp3403
S't_set/AWM8--273422385.jpg'
p3404
aS'AWM8'
p3405
aa(lp3406
S't_set/XPJ6.jpg'
p3407
aS'XPJ6'
p3408
aa(lp3409
S't_set/YPBX--142439886.jpg'
p3410
aS'YPBX'
p3411
aa(lp3412
S't_set/AWSH--519677637.jpg'
p3413
aS'AWSH'
p3414
aa(lp3415
S't_set/JEVS--472087868.jpg'
p3416
aS'JEVS'
p3417
aa(lp3418
S't_set/YKGX--1059316689.jpg'
p3419
aS'YKGX'
p3420
aa(lp3421
S't_set/XN9W--1023297900.jpg'
p3422
aS'XN9W'
p3423
aa(lp3424
S't_set/RM8X.jpg'
p3425
aS'RM8X'
p3426
aa(lp3427
S't_set/3PEA--453643283.jpg'
p3428
aS'3PEA'
p3429
aa(lp3430
S't_set/bxn9--596172006.jpg'
p3431
aS'bxn9'
p3432
aa(lp3433
S't_set/RF3T.jpg'
p3434
aS'RF3T'
p3435
aa(lp3436
S't_set/SD5R--294621342.jpg'
p3437
aS'SD5R'
p3438
aa(lp3439
S't_set/dzrm.jpg'
p3440
aS'dzrm'
p3441
aa(lp3442
S't_set/2NJZ--981980205.jpg'
p3443
aS'2NJZ'
p3444
aa(lp3445
S't_set/SD4R--61399287.jpg'
p3446
aS'SD4R'
p3447
aa(lp3448
S't_set/8URF--36477815.jpg'
p3449
aS'8URF'
p3450
aa(lp3451
S't_set/EAXN--185184415.jpg'
p3452
aS'EAXN'
p3453
aa(lp3454
S't_set/TPD2--875783500.jpg'
p3455
aS'TPD2'
p3456
aa(lp3457
S't_set/XPAW--438152467.jpg'
p3458
aS'XPAW'
p3459
aa(lp3460
S't_set/vrd4--719432364.jpg'
p3461
aS'vrd4'
p3462
aa(lp3463
S't_set/MBXK.jpg'
p3464
aS'MBXK'
p3465
aa(lp3466
S't_set/th5v.jpg'
p3467
aS'th5v'
p3468
aa(lp3469
S't_set/8UKF.jpg'
p3470
aS'8UKF'
p3471
aa(lp3472
S't_set/EBSN--754447901.jpg'
p3473
aS'EBSN'
p3474
aa(lp3475
S't_set/PDZR.jpg'
p3476
aS'PDZR'
p3477
aa(lp3478
S't_set/vk8x--730500910.jpg'
p3479
aS'vk8x'
p3480
aa(lp3481
S't_set/FXTE.jpg'
p3482
aS'FXTE'
p3483
aa(lp3484
S't_set/2rdz.jpg'
p3485
aS'2rdz'
p3486
aa(lp3487
S't_set/GXUF--261904811.jpg'
p3488
aS'GXUF'
p3489
aa(lp3490
S't_set/pj7w.jpg'
p3491
aS'pj7w'
p3492
aa(lp3493
S't_set/VSD4.jpg'
p3494
aS'VSD4'
p3495
aa(lp3496
S't_set/QK8X--483906833.jpg'
p3497
aS'QK8X'
p3498
aa(lp3499
S't_set/M8XK--388531358.jpg'
p3500
aS'M8XK'
p3501
aa(lp3502
S't_set/UF6T--666953606.jpg'
p3503
aS'UF6T'
p3504
aa(lp3505
S't_set/JAWM--1257872808.jpg'
p3506
aS'JAWM'
p3507
aa(lp3508
S't_set/BSPA--130615163.jpg'
p3509
aS'BSPA'
p3510
aa(lp3511
S't_set/RMBX.jpg'
p3512
aS'RMBX'
p3513
aa(lp3514
S't_set/2RCY--188855869.jpg'
p3515
aS'2RCY'
p3516
aa(lp3517
S't_set/JAWH.jpg'
p3518
aS'JAWH'
p3519
aa(lp3520
S't_set/HEVR--1158182361.jpg'
p3521
aS'HEVR'
p3522
aa(lp3523
S't_set/M9VK--1243147728.jpg'
p3524
aS'M9VK'
p3525
aa(lp3526
S't_set/MBXP--146520285.jpg'
p3527
aS'MBXP'
p3528
aa(lp3529
S't_set/kawm--1246839202.jpg'
p3530
aS'kawm'
p3531
aa(lp3532
S't_set/dzrc--53527583.jpg'
p3533
aS'dzrc'
p3534
aa(lp3535
S't_set/HDVR--156310592.jpg'
p3536
aS'HDVR'
p3537
aa(lp3538
S't_set/CZQK.jpg'
p3539
aS'CZQK'
p3540
aa(lp3541
S't_set/RNCY--1165738988.jpg'
p3542
aS'RNCY'
p3543
aa(lp3544
S't_set/EVRF--140346793.jpg'
p3545
aS'EVRF'
p3546
aa(lp3547
S't_set/VK7W--296195663.jpg'
p3548
aS'VK7W'
p3549
aa(lp3550
S't_set/E2RD--224210082.jpg'
p3551
aS'E2RD'
p3552
aa(lp3553
S't_set/zncy--95764446.jpg'
p3554
aS'zncy'
p3555
aa(lp3556
S't_set/6SPD.jpg'
p3557
aS'6SPD'
p3558
aa(lp3559
S't_set/KAWM--977600614.jpg'
p3560
aS'KAWM'
p3561
aa(lp3562
S't_set/D4RM--28512393.jpg'
p3563
aS'D4RM'
p3564
aa(lp3565
S't_set/YVK7--1168541492.jpg'
p3566
aS'YVK7'
p3567
aa(lp3568
S't_set/RD4Q--1294904106.jpg'
p3569
aS'RD4Q'
p3570
aa(lp3571
S't_set/arnc.jpg'
p3572
aS'arnc'
p3573
aa(lp3574
S't_set/RN9Y.jpg'
p3575
aS'RN9Y'
p3576
aa(lp3577
S't_set/gctq.jpg'
p3578
aS'gctq'
p3579
aa(lp3580
S't_set/awn9--771648718.jpg'
p3581
aS'awn9'
p3582
aa(lp3583
S't_set/JF3S.jpg'
p3584
aS'JF3S'
p3585
aa(lp3586
S't_set/KGXT--640757973.jpg'
p3587
aS'KGXT'
p3588
aa(lp3589
S't_set/NAZM--890287015.jpg'
p3590
aS'NAZM'
p3591
aa(lp3592
S't_set/kfwt--1071406210.jpg'
p3593
aS'kfwt'
p3594
aa(lp3595
S't_set/durf.jpg'
p3596
aS'durf'
p3597
aa(lp3598
S't_set/YPKA--839972940.jpg'
p3599
aS'YPKA'
p3600
aa(lp3601
S't_set/TEBS.jpg'
p3602
aS'TEBS'
p3603
aa(lp3604
S't_set/G8UJ.jpg'
p3605
aS'G8UJ'
p3606
aa(lp3607
S't_set/czqb--958246735.jpg'
p3608
aS'czqb'
p3609
aa(lp3610
S't_set/rncy--685728196.jpg'
p3611
aS'rncy'
p3612
aa(lp3613
S't_set/2PDZ--1240738670.jpg'
p3614
aS'2PDZ'
p3615
aa(lp3616
S't_set/KFWT--303430285.jpg'
p3617
aS'KFWT'
p3618
aa(lp3619
S't_set/KFWT--877074793.jpg'
p3620
aS'KFWT'
p3621
aa(lp3622
S't_set/G4TF--31123345.jpg'
p3623
aS'G4TF'
p3624
aa(lp3625
S't_set/RFCT.jpg'
p3626
aS'RFCT'
p3627
aa(lp3628
S't_set/2RD4--27782409.jpg'
p3629
aS'2RD4'
p3630
aa(lp3631
S't_set/d2nc--166102399.jpg'
p3632
aS'd2nc'
p3633
aa(lp3634
S't_set/D4QM.jpg'
p3635
aS'D4QM'
p3636
aa(lp3637
S't_set/ASN9.jpg'
p3638
aS'ASN9'
p3639
aa(lp3640
S't_set/QE2R--227428350.jpg'
p3641
aS'QE2R'
p3642
aa(lp3643
S't_set/PJZV--1157588568.jpg'
p3644
aS'PJZV'
p3645
aa(lp3646
S't_set/BSNC.jpg'
p3647
aS'BSNC'
p3648
aa(lp3649
S't_set/rmby--939475749.jpg'
p3650
aS'rmby'
p3651
aa(lp3652
S't_set/bxna--1052112893.jpg'
p3653
aS'bxna'
p3654
aa(lp3655
S't_set/8YKF--562421463.jpg'
p3656
aS'8YKF'
p3657
aa(lp3658
S't_set/9YKF--6255698.jpg'
p3659
aS'9YKF'
p3660
aa(lp3661
S't_set/KAWM.jpg'
p3662
aS'KAWM'
p3663
aa(lp3664
S't_set/uj6t.jpg'
p3665
aS'uj6t'
p3666
aa(lp3667
S't_set/wh9v.jpg'
p3668
aS'wh9v'
p3669
aa(lp3670
S't_set/NHYV--456483019.jpg'
p3671
aS'NHYV'
p3672
aa(lp3673
S't_set/fbsp.jpg'
p3674
aS'fbsp'
p3675
aa(lp3676
S't_set/THD2--968519659.jpg'
p3677
aS'THD2'
p3678
aa(lp3679
S't_set/th6v.jpg'
p3680
aS'th6v'
p3681
aa(lp3682
S't_set/GDUQ--190523897.jpg'
p3683
aS'GDUQ'
p3684
aa(lp3685
S't_set/N9YM--770000536.jpg'
p3686
aS'N9YM'
p3687
aa(lp3688
S't_set/VK8X--128876391.jpg'
p3689
aS'VK8X'
p3690
aa(lp3691
S't_set/QKAX--512896991.jpg'
p3692
aS'QKAX'
p3693
aa(lp3694
S't_set/SD4R--264750233.jpg'
p3695
aS'SD4R'
p3696
aa(lp3697
S't_set/vsg4.jpg'
p3698
aS'vsg4'
p3699
aa(lp3700
S't_set/RM9Y.jpg'
p3701
aS'RM9Y'
p3702
aa(lp3703
S't_set/4QKA.jpg'
p3704
aS'4QKA'
p3705
aa(lp3706
S't_set/AXNH.jpg'
p3707
aS'AXNH'
p3708
aa(lp3709
S't_set/bspa--556219670.jpg'
p3710
aS'bspa'
p3711
aa(lp3712
S't_set/CYPB.jpg'
p3713
aS'CYPB'
p3714
aa(lp3715
S't_set/CYNH.jpg'
p3716
aS'CYNH'
p3717
aa(lp3718
S't_set/wj9v.jpg'
p3719
aS'wj9v'
p3720
aa(lp3721
S't_set/xnjz--452405478.jpg'
p3722
aS'xnjz'
p3723
aa(lp3724
S't_set/HDUR--774849715.jpg'
p3725
aS'HDUR'
p3726
aa(lp3727
S't_set/PJ7W.jpg'
p3728
aS'PJ7W'
p3729
aa(lp3730
S't_set/YQK7--1120291823.jpg'
p3731
aS'YQK7'
p3732
aa(lp3733
S't_set/6vg7.jpg'
p3734
aS'6vg7'
p3735
aa(lp3736
S't_set/CYPK.jpg'
p3737
aS'CYPK'
p3738
aa(lp3739
S't_set/H8UQ--443069892.jpg'
p3740
aS'H8UQ'
p3741
aa(lp3742
S't_set/QE2N.jpg'
p3743
aS'QE2N'
p3744
aa(lp3745
S't_set/5rmc--1294137608.jpg'
p3746
aS'5rmc'
p3747
aa(lp3748
S't_set/PJZW--665910128.jpg'
p3749
aS'PJZW'
p3750
aa(lp3751
S't_set/KGXT--1189533443.jpg'
p3752
aS'KGXT'
p3753
aa(lp3754
S't_set/e5sg.jpg'
p3755
aS'e5sg'
p3756
aa(lp3757
S't_set/RFCY--690858606.jpg'
p3758
aS'RFCY'
p3759
aa(lp3760
S't_set/XUJ6--752594226.jpg'
p3761
aS'XUJ6'
p3762
aa(lp3763
S't_set/AWM9--1038633181.jpg'
p3764
aS'AWM9'
p3765
aa(lp3766
S't_set/DZQC.jpg'
p3767
aS'DZQC'
p3768
aa(lp3769
S't_set/VK8U--351280649.jpg'
p3770
aS'VK8U'
p3771
aa(lp3772
S't_set/CYKA.jpg'
p3773
aS'CYKA'
p3774
aa(lp3775
S't_set/NAWM--445074585.jpg'
p3776
aS'NAWM'
p3777
aa(lp3778
S't_set/CYG8.jpg'
p3779
aS'CYG8'
p3780
aa(lp3781
S't_set/6wh8.jpg'
p3782
aS'6wh8'
p3783
aa(lp3784
S't_set/PEAW--696135935.jpg'
p3785
aS'PEAW'
p3786
aa(lp3787
S't_set/j6th.jpg'
p3788
aS'j6th'
p3789
aa(lp3790
S't_set/E2RD.jpg'
p3791
aS'E2RD'
p3792
aa(lp3793
S't_set/SG5R--855169789.jpg'
p3794
aS'SG5R'
p3795
aa(lp3796
S't_set/SGCT--499938420.jpg'
p3797
aS'SGCT'
p3798
aa(lp3799
S't_set/BSPD.jpg'
p3800
aS'BSPD'
p3801
aa(lp3802
S't_set/XJ9W--678479315.jpg'
p3803
aS'XJ9W'
p3804
aa(lp3805
S't_set/7THE--1112053626.jpg'
p3806
aS'7THE'
p3807
aa(lp3808
S't_set/h8vk--302782713.jpg'
p3809
aS'h8vk'
p3810
aa(lp3811
S't_set/e2nd.jpg'
p3812
aS'e2nd'
p3813
aa(lp3814
S't_set/6VG7.jpg'
p3815
aS'6VG7'
p3816
aa(lp3817
S't_set/E5RG.jpg'
p3818
aS'E5RG'
p3819
aa(lp3820
S't_set/QM8X.jpg'
p3821
aS'QM8X'
p3822
aa(lp3823
S't_set/UFBT--363651959.jpg'
p3824
aS'UFBT'
p3825
aa(lp3826
S't_set/pear--752399725.jpg'
p3827
aS'pear'
p3828
aa(lp3829
S't_set/3QKA.jpg'
p3830
aS'3QKA'
p3831
aa(lp3832
S't_set/WSE5--1121931131.jpg'
p3833
aS'WSE5'
p3834
aa(lp3835
S't_set/ykax--334918941.jpg'
p3836
aS'ykax'
p3837
aa(lp3838
S't_set/VSG4.jpg'
p3839
aS'VSG4'
p3840
aa(lp3841
S't_set/JFWS.jpg'
p3842
aS'JFWS'
p3843
aa(lp3844
S't_set/TPAZ--1262149934.jpg'
p3845
aS'TPAZ'
p3846
aa(lp3847
S't_set/E2RD--927488995.jpg'
p3848
aS'E2RD'
p3849
aa(lp3850
S't_set/YKAX--555648662.jpg'
p3851
aS'YKAX'
p3852
aa(lp3853
S't_set/CTPB--1316021870.jpg'
p3854
aS'CTPB'
p3855
aa(lp3856
S't_set/XJFW--287274784.jpg'
p3857
aS'XJFW'
p3858
aa(lp3859
S't_set/ykbx--785112532.jpg'
p3860
aS'ykbx'
p3861
aa(lp3862
S't_set/UQB3--46727985.jpg'
p3863
aS'UQB3'
p3864
aa(lp3865
S't_set/qbyp.jpg'
p3866
aS'qbyp'
p3867
aa(lp3868
S't_set/GXUF--780733757.jpg'
p3869
aS'GXUF'
p3870
aa(lp3871
S't_set/C3PK.jpg'
p3872
aS'C3PK'
p3873
aa(lp3874
S't_set/NCYP--580895436.jpg'
p3875
aS'NCYP'
p3876
aa(lp3877
S't_set/E2ND.jpg'
p3878
aS'E2ND'
p3879
aa(lp3880
S't_set/THE2.jpg'
p3881
aS'THE2'
p3882
aa(lp3883
S't_set/WSH5--543809137.jpg'
p3884
aS'WSH5'
p3885
aa(lp3886
S't_set/EAXN--780069419.jpg'
p3887
aS'EAXN'
p3888
aa(lp3889
S't_set/4TF6--1229063166.jpg'
p3890
aS'4TF6'
p3891
aa(lp3892
S't_set/5RFB.jpg'
p3893
aS'5RFB'
p3894
aa(lp3895
S't_set/EBSN--850803003.jpg'
p3896
aS'EBSN'
p3897
aa(lp3898
S't_set/KF3T--1001686550.jpg'
p3899
aS'KF3T'
p3900
aa(lp3901
S't_set/BYUJ.jpg'
p3902
aS'BYUJ'
p3903
aa(lp3904
S't_set/WH8V.jpg'
p3905
aS'WH8V'
p3906
aa(lp3907
S't_set/UJF3--616392152.jpg'
p3908
aS'UJF3'
p3909
aa(lp3910
S't_set/F3TE.jpg'
p3911
aS'F3TE'
p3912
aa(lp3913
S't_set/NCZM--313837633.jpg'
p3914
aS'NCZM'
p3915
aa(lp3916
S't_set/J9WM.jpg'
p3917
aS'J9WM'
p3918
aa(lp3919
S't_set/kbxj.jpg'
p3920
aS'kbxj'
p3921
aa(lp3922
S't_set/CZVK--279998774.jpg'
p3923
aS'CZVK'
p3924
aa(lp3925
S't_set/mcyk.jpg'
p3926
aS'mcyk'
p3927
aa(lp3928
S't_set/6snd--763691696.jpg'
p3929
aS'6snd'
p3930
aa(lp3931
S't_set/DARM.jpg'
p3932
aS'DARM'
p3933
aa(lp3934
S't_set/F3SD--1260975377.jpg'
p3935
aS'F3SD'
p3936
aa(lp3937
S't_set/FBSP--711832059.jpg'
p3938
aS'FBSP'
p3939
aa(lp3940
S't_set/bspa.jpg'
p3941
aS'bspa'
p3942
aa(lp3943
S't_set/ZMBX.jpg'
p3944
aS'ZMBX'
p3945
aa(lp3946
S't_set/SNDZ--1297749112.jpg'
p3947
aS'SNDZ'
p3948
aa(lp3949
S't_set/g7uj.jpg'
p3950
aS'g7uj'
p3951
aa(lp3952
S't_set/2RCZ--1025513458.jpg'
p3953
aS'2RCZ'
p3954
aa(lp3955
S't_set/3SE5.jpg'
p3956
aS'3SE5'
p3957
aa(lp3958
S't_set/pdzw.jpg'
p3959
aS'pdzw'
p3960
aa(lp3961
S't_set/UKFW.jpg'
p3962
aS'UKFW'
p3963
aa(lp3964
S't_set/9YKG.jpg'
p3965
aS'9YKG'
p3966
aa(lp3967
S't_set/J9VS.jpg'
p3968
aS'J9VS'
p3969
aa(lp3970
S't_set/PE2R--230319591.jpg'
p3971
aS'PE2R'
p3972
aa(lp3973
S't_set/gxth--299125496.jpg'
p3974
aS'gxth'
p3975
aa(lp3976
S't_set/SG5U--840573904.jpg'
p3977
aS'SG5U'
p3978
aa(lp3979
S't_set/TFBS.jpg'
p3980
aS'TFBS'
p3981
aa(lp3982
S't_set/3SE5--747870035.jpg'
p3983
aS'3SE5'
p3984
aa(lp3985
S't_set/E2RD--834120873.jpg'
p3986
aS'E2RD'
p3987
aa(lp3988
S't_set/8xjf--964761305.jpg'
p3989
aS'8xjf'
p3990
aa(lp3991
S't_set/FBYP--1095914184.jpg'
p3992
aS'FBYP'
p3993
aa(lp3994
S't_set/5UFB.jpg'
p3995
aS'5UFB'
p3996
aa(lp3997
S't_set/XNAW.jpg'
p3998
aS'XNAW'
p3999
aa(lp4000
S't_set/5RNC--1246863352.jpg'
p4001
aS'5RNC'
p4002
aa(lp4003
S't_set/RFBY--1142785786.jpg'
p4004
aS'RFBY'
p4005
aa(lp4006
S't_set/2NCZ--76462933.jpg'
p4007
aS'2NCZ'
p4008
aa(lp4009
S't_set/EVSD.jpg'
p4010
aS'EVSD'
p4011
aa(lp4012
S't_set/ebxn.jpg'
p4013
aS'ebxn'
p4014
aa(lp4015
S't_set/SD4R--639259866.jpg'
p4016
aS'SD4R'
p4017
aa(lp4018
S't_set/eaxn--205614735.jpg'
p4019
aS'eaxn'
p4020
aa(lp4021
S't_set/SPDZ--909865553.jpg'
p4022
aS'SPDZ'
p4023
aa(lp4024
S't_set/6VHD--1223803341.jpg'
p4025
aS'6VHD'
p4026
aa(lp4027
S't_set/qkax--106643717.jpg'
p4028
aS'qkax'
p4029
aa(lp4030
S't_set/KG4T--196343473.jpg'
p4031
aS'KG4T'
p4032
aa(lp4033
S't_set/YQK7.jpg'
p4034
aS'YQK7'
p4035
aa(lp4036
S't_set/vrf4.jpg'
p4037
aS'vrf4'
p4038
aa(lp4039
S't_set/m8xj--88261490.jpg'
p4040
aS'm8xj'
p4041
aa(lp4042
S't_set/ARM9--325467665.jpg'
p4043
aS'ARM9'
p4044
aa(lp4045
S't_set/byuj.jpg'
p4046
aS'byuj'
p4047
aa(lp4048
S't_set/sgcz.jpg'
p4049
aS'sgcz'
p4050
aa(lp4051
S't_set/RD4Q--476501574.jpg'
p4052
aS'RD4Q'
p4053
aa(lp4054
S't_set/9yka--624121680.jpg'
p4055
aS'9yka'
p4056
aa(lp4057
S't_set/J7TH.jpg'
p4058
aS'J7TH'
p4059
aa(lp4060
S't_set/pdar.jpg'
p4061
aS'pdar'
p4062
aa(lp4063
S't_set/KGXT--206861848.jpg'
p4064
aS'KGXT'
p4065
aa(lp4066
S't_set/evrd.jpg'
p4067
aS'evrd'
p4068
aa(lp4069
S't_set/M9YK.jpg'
p4070
aS'M9YK'
p4071
aa(lp4072
S't_set/RFCT--1112593622.jpg'
p4073
aS'RFCT'
p4074
aa(lp4075
S't_set/EBXN--890287363.jpg'
p4076
aS'EBXN'
p4077
aa(lp4078
S't_set/F4TE--741885477.jpg'
p4079
aS'F4TE'
p4080
aa(lp4081
S't_set/B2PD.jpg'
p4082
aS'B2PD'
p4083
aa(lp4084
S't_set/vrg4.jpg'
p4085
aS'vrg4'
p4086
aa(lp4087
S't_set/PB2N--346068210.jpg'
p4088
aS'PB2N'
p4089
aa(lp4090
S't_set/AZMB.jpg'
p4091
aS'AZMB'
p4092
aa(lp4093
S't_set/6SGC--772850975.jpg'
p4094
aS'6SGC'
p4095
aa(lp4096
S't_set/XUJ6--857398113.jpg'
p4097
aS'XUJ6'
p4098
aa(lp4099
S't_set/TJ6S.jpg'
p4100
aS'TJ6S'
p4101
aa(lp4102
S't_set/3PDA--869971752.jpg'
p4103
aS'3PDA'
p4104
aa(lp4105
S't_set/YPK7.jpg'
p4106
aS'YPK7'
p4107
aa(lp4108
S't_set/JZVK.jpg'
p4109
aS'JZVK'
p4110
aa(lp4111
S't_set/sncz--477062194.jpg'
p4112
aS'sncz'
p4113
aa(lp4114
S't_set/K8XJ.jpg'
p4115
aS'K8XJ'
p4116
aa(lp4117
S't_set/K8XJ--455984374.jpg'
p4118
aS'K8XJ'
p4119
aa(lp4120
S't_set/EBSN--712403649.jpg'
p4121
aS'EBSN'
p4122
aa(lp4123
S't_set/VRD4--815095729.jpg'
p4124
aS'VRD4'
p4125
aa(lp4126
S't_set/QEBX--1249207536.jpg'
p4127
aS'QEBX'
p4128
aa(lp4129
S't_set/CYPB--1312586457.jpg'
p4130
aS'CYPB'
p4131
aa(lp4132
S't_set/VHDU--1247107163.jpg'
p4133
aS'VHDU'
p4134
aa(lp4135
S't_set/K8XJ--171413519.jpg'
p4136
aS'K8XJ'
p4137
aa(lp4138
S't_set/C3QK.jpg'
p4139
aS'C3QK'
p4140
aa(lp4141
S't_set/TF6S.jpg'
p4142
aS'TF6S'
p4143
aa(lp4144
S't_set/D4RF--14600412.jpg'
p4145
aS'D4RF'
p4146
aa(lp4147
S't_set/ctqb.jpg'
p4148
aS'ctqb'
p4149
aa(lp4150
S't_set/BXNA.jpg'
p4151
aS'BXNA'
p4152
aa(lp4153
S't_set/3SD4--179781061.jpg'
p4154
aS'3SD4'
p4155
aa(lp4156
S't_set/DZQC--792374799.jpg'
p4157
aS'DZQC'
p4158
aa(lp4159
S't_set/durf--1148151235.jpg'
p4160
aS'durf'
p4161
aa(lp4162
S't_set/SG5R.jpg'
p4163
aS'SG5R'
p4164
aa(lp4165
S't_set/8VRF--240214300.jpg'
p4166
aS'8VRF'
p4167
aa(lp4168
S't_set/B2ND.jpg'
p4169
aS'B2ND'
p4170
aa(lp4171
S't_set/UG7T--384255694.jpg'
p4172
aS'UG7T'
p4173
aa(lp4174
S't_set/WSG5.jpg'
p4175
aS'WSG5'
p4176
aa(lp4177
S't_set/FBYP--1244511559.jpg'
p4178
aS'FBYP'
p4179
aa(lp4180
S't_set/uf6t.jpg'
p4181
aS'uf6t'
p4182
aa(lp4183
S't_set/easn.jpg'
p4184
aS'easn'
p4185
aa(lp4186
S't_set/xtf6--189464037.jpg'
p4187
aS'xtf6'
p4188
aa(lp4189
S't_set/f3qe.jpg'
p4190
aS'f3qe'
p4191
aa(lp4192
S't_set/J6VH--25284644.jpg'
p4193
aS'J6VH'
p4194
aa(lp4195
S't_set/DARM--1033482752.jpg'
p4196
aS'DARM'
p4197
aa(lp4198
S't_set/ZQM8.jpg'
p4199
aS'ZQM8'
p4200
aa(lp4201
S't_set/cyqb.jpg'
p4202
aS'cyqb'
p4203
aa(lp4204
S't_set/VKG4--272197594.jpg'
p4205
aS'VKG4'
p4206
aa(lp4207
S't_set/h5rg--1283620985.jpg'
p4208
aS'h5rg'
p4209
aa(lp4210
S't_set/ymgx.jpg'
p4211
aS'ymgx'
p4212
aa(lp4213
S't_set/7XJ9.jpg'
p4214
aS'7XJ9'
p4215
aa(lp4216
S't_set/wsg5.jpg'
p4217
aS'wsg5'
p4218
aa(lp4219
S't_set/VRF4--1241624975.jpg'
p4220
aS'VRF4'
p4221
aa(lp4222
S't_set/AWMH.jpg'
p4223
aS'AWMH'
p4224
aa(lp4225
S't_set/TPDZ.jpg'
p4226
aS'TPDZ'
p4227
aa(lp4228
S't_set/AXNH--473663463.jpg'
p4229
aS'AXNH'
p4230
aa(lp4231
S't_set/WM8V.jpg'
p4232
aS'WM8V'
p4233
aa(lp4234
S't_set/F4QE.jpg'
p4235
aS'F4QE'
p4236
aa(lp4237
S't_set/3PJA--1193963206.jpg'
p4238
aS'3PJA'
p4239
aa(lp4240
S't_set/9YMB--600353482.jpg'
p4241
aS'9YMB'
p4242
aa(lp4243
S't_set/kfwt.jpg'
p4244
aS'kfwt'
p4245
aa(lp4246
S't_set/E2PD--1069456931.jpg'
p4247
aS'E2PD'
p4248
aa(lp4249
S't_set/RFCY.jpg'
p4250
aS'RFCY'
p4251
aa(lp4252
S't_set/PAXN--607466835.jpg'
p4253
aS'PAXN'
p4254
aa(lp4255
S't_set/WJEV--384726296.jpg'
p4256
aS'WJEV'
p4257
aa(lp4258
S't_set/K8UJ.jpg'
p4259
aS'K8UJ'
p4260
aa(lp4261
S't_set/9YMG.jpg'
p4262
aS'9YMG'
p4263
aa(lp4264
S't_set/K7UJ--355870395.jpg'
p4265
aS'K7UJ'
p4266
aa(lp4267
S't_set/yuk7--746578598.jpg'
p4268
aS'yuk7'
p4269
aa(lp4270
S't_set/NJ6V.jpg'
p4271
aS'NJ6V'
p4272
aa(lp4273
S't_set/NJZV.jpg'
p4274
aS'NJZV'
p4275
aa(lp4276
S't_set/GXTE.jpg'
p4277
aS'GXTE'
p4278
aa(lp4279
S't_set/CYPK--730268144.jpg'
p4280
aS'CYPK'
p4281
aa(lp4282
S't_set/MBYK.jpg'
p4283
aS'MBYK'
p4284
aa(lp4285
S't_set/F4TE--992955021.jpg'
p4286
aS'F4TE'
p4287
aa(lp4288
S't_set/xkfw.jpg'
p4289
aS'xkfw'
p4290
aa(lp4291
S't_set/mgyu.jpg'
p4292
aS'mgyu'
p4293
aa(lp4294
S't_set/3sda--299262216.jpg'
p4295
aS'3sda'
p4296
aa(lp4297
S't_set/XKFW--1073820921.jpg'
p4298
aS'XKFW'
p4299
aa(lp4300
S't_set/D2RC--407954035.jpg'
p4301
aS'D2RC'
p4302
aa(lp4303
S't_set/BXUJ.jpg'
p4304
aS'BXUJ'
p4305
aa(lp4306
S't_set/3PDA--1306671134.jpg'
p4307
aS'3PDA'
p4308
aa(lp4309
S't_set/7TPE--422059351.jpg'
p4310
aS'7TPE'
p4311
aa(lp4312
S't_set/wmgx.jpg'
p4313
aS'wmgx'
p4314
aa(lp4315
S't_set/pa2n.jpg'
p4316
aS'pa2n'
p4317
aa(lp4318
S't_set/JEVS--1187077266.jpg'
p4319
aS'JEVS'
p4320
aa(lp4321
S't_set/VSG4--829887761.jpg'
p4322
aS'VSG4'
p4323
aa(lp4324
S't_set/3pda--1106138353.jpg'
p4325
aS'3pda'
p4326
aa(lp4327
S't_set/B2PJ--216661466.jpg'
p4328
aS'B2PJ'
p4329
aa(lp4330
S't_set/DZMC--1108328849.jpg'
p4331
aS'DZMC'
p4332
aa(lp4333
S't_set/VK8U.jpg'
p4334
aS'VK8U'
p4335
aa(lp4336
S't_set/AWN9.jpg'
p4337
aS'AWN9'
p4338
aa(lp4339
S't_set/BSND.jpg'
p4340
aS'BSND'
p4341
aa(lp4342
S't_set/HDUQ--1175058221.jpg'
p4343
aS'HDUQ'
p4344
aa(lp4345
S't_set/M8VK--1268770694.jpg'
p4346
aS'M8VK'
p4347
aa(lp4348
S't_set/RMCY.jpg'
p4349
aS'RMCY'
p4350
aa(lp4351
S't_set/MCYK.jpg'
p4352
aS'MCYK'
p4353
aa(lp4354
S't_set/b3pj.jpg'
p4355
aS'b3pj'
p4356
aa(lp4357
S't_set/GCZQ--95213636.jpg'
p4358
aS'GCZQ'
p4359
aa(lp4360
S't_set/VRG4--1037371722.jpg'
p4361
aS'VRG4'
p4362
aa(lp4363
S't_set/rn9y.jpg'
p4364
aS'rn9y'
p4365
aa(lp4366
S't_set/bxnj--1130369742.jpg'
p4367
aS'bxnj'
p4368
aa(lp4369
S't_set/JZWH--378610589.jpg'
p4370
aS'JZWH'
p4371
aa(lp4372
S't_set/rmcy.jpg'
p4373
aS'rmcy'
p4374
aa(lp4375
S't_set/SE5R.jpg'
p4376
aS'SE5R'
p4377
aa(lp4378
S't_set/8UJF.jpg'
p4379
aS'8UJF'
p4380
aa(lp4381
S't_set/GCUQ.jpg'
p4382
aS'GCUQ'
p4383
aa(lp4384
S't_set/AWN9--116882328.jpg'
p4385
aS'AWN9'
p4386
aa(lp4387
S't_set/5UFC--898188383.jpg'
p4388
aS'5UFC'
p4389
aa(lp4390
S't_set/bypj--1190343634.jpg'
p4391
aS'bypj'
p4392
aa(lp4393
S't_set/azmc.jpg'
p4394
aS'azmc'
p4395
aa(lp4396
S't_set/je3s.jpg'
p4397
aS'je3s'
p4398
aa(lp4399
S't_set/h8vr--948926819.jpg'
p4400
aS'h8vr'
p4401
aa(lp4402
S't_set/6SGD--1257960377.jpg'
p4403
aS'6SGD'
p4404
aa(lp4405
S't_set/tqb2.jpg'
p4406
aS'tqb2'
p4407
aa(lp4408
S't_set/ZRM8.jpg'
p4409
aS'ZRM8'
p4410
aa(lp4411
S't_set/K7WJ.jpg'
p4412
aS'K7WJ'
p4413
aa(lp4414
S't_set/3pdz.jpg'
p4415
aS'3pdz'
p4416
aa(lp4417
S't_set/MBXN--245337403.jpg'
p4418
aS'MBXN'
p4419
aa(lp4420
S't_set/BXNA--172701464.jpg'
p4421
aS'BXNA'
p4422
aa(lp4423
S't_set/3sda.jpg'
p4424
aS'3sda'
p4425
aa(lp4426
S't_set/GXTF--539713544.jpg'
p4427
aS'GXTF'
p4428
aa(lp4429
S't_set/2PJZ.jpg'
p4430
aS'2PJZ'
p4431
aa(lp4432
S't_set/K8UJ--562309715.jpg'
p4433
aS'K8UJ'
p4434
aa(lp4435
S't_set/fwse.jpg'
p4436
aS'fwse'
p4437
aa(lp4438
S't_set/8YKF--250318165.jpg'
p4439
aS'8YKF'
p4440
aa(lp4441
S't_set/F3TE--612591666.jpg'
p4442
aS'F3TE'
p4443
aa(lp4444
S't_set/d4rm--182979183.jpg'
p4445
aS'd4rm'
p4446
aa(lp4447
S't_set/2NJZ--1228523022.jpg'
p4448
aS'2NJZ'
p4449
aa(lp4450
S't_set/8xka.jpg'
p4451
aS'8xka'
p4452
aa(lp4453
S't_set/qeax--625132023.jpg'
p4454
aS'qeax'
p4455
aa(lp4456
S't_set/gduq.jpg'
p4457
aS'gduq'
p4458
aa(lp4459
S't_set/WTE5.jpg'
p4460
aS'WTE5'
p4461
aa(lp4462
S't_set/WMGY.jpg'
p4463
aS'WMGY'
p4464
aa(lp4465
S't_set/awn9.jpg'
p4466
aS'awn9'
p4467
aa(lp4468
S't_set/ZRC3--751044866.jpg'
p4469
aS'ZRC3'
p4470
aa(lp4471
S't_set/j6sh.jpg'
p4472
aS'j6sh'
p4473
aa(lp4474
S't_set/SEAR--478689784.jpg'
p4475
aS'SEAR'
p4476
aa(lp4477
S't_set/HDUR.jpg'
p4478
aS'HDUR'
p4479
aa(lp4480
S't_set/tpa2--51249870.jpg'
p4481
aS'tpa2'
p4482
aa(lp4483
S't_set/th5s--708129389.jpg'
p4484
aS'th5s'
p4485
aa(lp4486
S't_set/KAWJ.jpg'
p4487
aS'KAWJ'
p4488
aa(lp4489
S't_set/8XKF--649845361.jpg'
p4490
aS'8XKF'
p4491
aa(lp4492
S't_set/ymbx--882467762.jpg'
p4493
aS'ymbx'
p4494
aa(lp4495
S't_set/QB3P--1229712658.jpg'
p4496
aS'QB3P'
p4497
aa(lp4498
S't_set/te5s.jpg'
p4499
aS'te5s'
p4500
aa(lp4501
S't_set/NHZV--79500107.jpg'
p4502
aS'NHZV'
p4503
aa(lp4504
S't_set/njzv.jpg'
p4505
aS'njzv'
p4506
aa(lp4507
S't_set/8UJF--675317232.jpg'
p4508
aS'8UJF'
p4509
aa(lp4510
S't_set/ARMC.jpg'
p4511
aS'ARMC'
p4512
aa(lp4513
S't_set/UG7T--140897019.jpg'
p4514
aS'UG7T'
p4515
aa(lp4516
S't_set/bspd.jpg'
p4517
aS'bspd'
p4518
aa(lp4519
S't_set/xnaz.jpg'
p4520
aS'xnaz'
p4521
aa(lp4522
S't_set/MGXU--7870373.jpg'
p4523
aS'MGXU'
p4524
aa(lp4525
S't_set/8UQF--609307748.jpg'
p4526
aS'8UQF'
p4527
aa(lp4528
S't_set/JAWM--790261549.jpg'
p4529
aS'JAWM'
p4530
aa(lp4531
S't_set/9WSG--1193473028.jpg'
p4532
aS'9WSG'
p4533
aa(lp4534
S't_set/DUQB.jpg'
p4535
aS'DUQB'
p4536
aa(lp4537
S't_set/CYUJ.jpg'
p4538
aS'CYUJ'
p4539
aa(lp4540
S't_set/AWNH.jpg'
p4541
aS'AWNH'
p4542
aa(lp4543
S't_set/VRF4.jpg'
p4544
aS'VRF4'
p4545
aa(lp4546
S't_set/9YKG--619955055.jpg'
p4547
aS'9YKG'
p4548
aa(lp4549
S't_set/VRC4--931636814.jpg'
p4550
aS'VRC4'
p4551
aa(lp4552
S't_set/8VKF--939942900.jpg'
p4553
aS'8VKF'
p4554
aa(lp4555
S't_set/J7WH--598156481.jpg'
p4556
aS'J7WH'
p4557
aa(lp4558
S't_set/HDUR--847508564.jpg'
p4559
aS'HDUR'
p4560
aa(lp4561
S't_set/uqe3--264041530.jpg'
p4562
aS'uqe3'
p4563
aa(lp4564
S't_set/ypk7.jpg'
p4565
aS'ypk7'
p4566
aa(lp4567
S't_set/A2NH--512982000.jpg'
p4568
aS'A2NH'
p4569
aa(lp4570
S't_set/BXUJ--478230588.jpg'
p4571
aS'BXUJ'
p4572
aa(lp4573
S't_set/C3QE--959971663.jpg'
p4574
aS'C3QE'
p4575
aa(lp4576
S't_set/je2s.jpg'
p4577
aS'je2s'
p4578
aa(lp4579
S't_set/M8XK--85159499.jpg'
p4580
aS'M8XK'
p4581
aa(lp4582
S't_set/e2rd.jpg'
p4583
aS'e2rd'
p4584
aa(lp4585
S't_set/xtj6.jpg'
p4586
aS'xtj6'
p4587
aa(lp4588
S't_set/3PDA--564540887.jpg'
p4589
aS'3PDA'
p4590
aa(lp4591
S't_set/tpa2--710429961.jpg'
p4592
aS'tpa2'
p4593
aa(lp4594
S't_set/E5RF--1093471176.jpg'
p4595
aS'E5RF'
p4596
aa(lp4597
S't_set/G4TF.jpg'
p4598
aS'G4TF'
p4599
aa(lp4600
S't_set/8YKF--594629159.jpg'
p4601
aS'8YKF'
p4602
aa(lp4603
S't_set/NCYU--828263132.jpg'
p4604
aS'NCYU'
p4605
aa(lp4606
S't_set/BYPA--879151034.jpg'
p4607
aS'BYPA'
p4608
aa(lp4609
S't_set/ebsn--1274340174.jpg'
p4610
aS'ebsn'
p4611
aa(lp4612
S't_set/K7TJ--36993791.jpg'
p4613
aS'K7TJ'
p4614
aa(lp4615
S't_set/FBSN--427851190.jpg'
p4616
aS'FBSN'
p4617
aa(lp4618
S't_set/8VKF.jpg'
p4619
aS'8VKF'
p4620
aa(lp4621
S't_set/2ndz.jpg'
p4622
aS'2ndz'
p4623
aa(lp4624
S't_set/UJ6T--803613535.jpg'
p4625
aS'UJ6T'
p4626
aa(lp4627
S't_set/MGXU--46161682.jpg'
p4628
aS'MGXU'
p4629
aa(lp4630
S't_set/QBXN.jpg'
p4631
aS'QBXN'
p4632
aa(lp4633
S't_set/YUG7--1266247158.jpg'
p4634
aS'YUG7'
p4635
aa(lp4636
S't_set/DZQM--895550551.jpg'
p4637
aS'DZQM'
p4638
aa(lp4639
S't_set/4tfb.jpg'
p4640
aS'4tfb'
p4641
aa(lp4642
S't_set/6VH8.jpg'
p4643
aS'6VH8'
p4644
aa(lp4645
S't_set/XNAW--397747908.jpg'
p4646
aS'XNAW'
p4647
aa(lp4648
S't_set/ug7t.jpg'
p4649
aS'ug7t'
p4650
aa(lp4651
S't_set/DZQK--10909431.jpg'
p4652
aS'DZQK'
p4653
aa(lp4654
S't_set/MG4U--1195522413.jpg'
p4655
aS'MG4U'
p4656
aa(lp4657
S't_set/BXKA--600538607.jpg'
p4658
aS'BXKA'
p4659
aa(lp4660
S't_set/2RD4.jpg'
p4661
aS'2RD4'
p4662
aa(lp4663
S't_set/DVRF.jpg'
p4664
aS'DVRF'
p4665
aa(lp4666
S't_set/rncy.jpg'
p4667
aS'rncy'
p4668
aa(lp4669
S't_set/EVSD--602381497.jpg'
p4670
aS'EVSD'
p4671
aa(lp4672
S't_set/MGXU--1267259052.jpg'
p4673
aS'MGXU'
p4674
aa(lp4675
S't_set/TPE2--152179415.jpg'
p4676
aS'TPE2'
p4677
aa(lp4678
S't_set/sh5u.jpg'
p4679
aS'sh5u'
p4680
aa(lp4681
S't_set/G4UF.jpg'
p4682
aS'G4UF'
p4683
aa(lp4684
S't_set/MBYU.jpg'
p4685
aS'MBYU'
p4686
aa(lp4687
S't_set/PAZN--1248802949.jpg'
p4688
aS'PAZN'
p4689
aa(lp4690
S't_set/KAXN--278676332.jpg'
p4691
aS'KAXN'
p4692
aa(lp4693
S't_set/vk7u--495772987.jpg'
p4694
aS'vk7u'
p4695
aa(lp4696
S't_set/9vkf.jpg'
p4697
aS'9vkf'
p4698
aa(lp4699
S't_set/CYMB.jpg'
p4700
aS'CYMB'
p4701
aa(lp4702
S't_set/SGCT.jpg'
p4703
aS'SGCT'
p4704
aa(lp4705
S't_set/3qka.jpg'
p4706
aS'3qka'
p4707
aa(lp4708
S't_set/AWM9--990452036.jpg'
p4709
aS'AWM9'
p4710
aa(lp4711
S't_set/J6WH--947456911.jpg'
p4712
aS'J6WH'
p4713
aa(lp4714
S't_set/ZQCY--1164239341.jpg'
p4715
aS'ZQCY'
p4716
aa(lp4717
S't_set/4TFB.jpg'
p4718
aS'4TFB'
p4719
aa(lp4720
S't_set/HEVR.jpg'
p4721
aS'HEVR'
p4722
aa(lp4723
S't_set/NJZV--510627838.jpg'
p4724
aS'NJZV'
p4725
aa(lp4726
S't_set/ZWH8.jpg'
p4727
aS'ZWH8'
p4728
aa(lp4729
S't_set/xn9y.jpg'
p4730
aS'xn9y'
p4731
aa(lp4732
S't_set/PKAW--352679294.jpg'
p4733
aS'PKAW'
p4734
aa(lp4735
S't_set/RF3T--876996781.jpg'
p4736
aS'RF3T'
p4737
aa(lp4738
S't_set/qe2p.jpg'
p4739
aS'qe2p'
p4740
aa(lp4741
S't_set/mbyp.jpg'
p4742
aS'mbyp'
p4743
aa(lp4744
S't_set/D4RF.jpg'
p4745
aS'D4RF'
p4746
aa(lp4747
S't_set/SGDZ.jpg'
p4748
aS'SGDZ'
p4749
aa(lp4750
S't_set/UQE2--566267635.jpg'
p4751
aS'UQE2'
p4752
aa(lp4753
S't_set/d4rf--507383286.jpg'
p4754
aS'd4rf'
p4755
aa(lp4756
S't_set/ncyq.jpg'
p4757
aS'ncyq'
p4758
aa(lp4759
S't_set/2SDZ--682573176.jpg'
p4760
aS'2SDZ'
p4761
aa(lp4762
S't_set/ZNCY--282767245.jpg'
p4763
aS'ZNCY'
p4764
aa(lp4765
S't_set/K8UJ--893139965.jpg'
p4766
aS'K8UJ'
p4767
aa(lp4768
S't_set/BXNA--797912677.jpg'
p4769
aS'BXNA'
p4770
aa(lp4771
S't_set/XNJZ--846142146.jpg'
p4772
aS'XNJZ'
p4773
aa(lp4774
S't_set/JZWM--1234855075.jpg'
p4775
aS'JZWM'
p4776
aa(lp4777
S't_set/JZWH--44334840.jpg'
p4778
aS'JZWH'
p4779
aa(lp4780
S't_set/6SNC--901003873.jpg'
p4781
aS'6SNC'
p4782
aa(lp4783
S't_set/XJ9W--746693901.jpg'
p4784
aS'XJ9W'
p4785
aa(lp4786
S't_set/3sea.jpg'
p4787
aS'3sea'
p4788
aa(lp4789
S't_set/paxn--587280515.jpg'
p4790
aS'paxn'
p4791
aa(lp4792
S't_set/ypb2.jpg'
p4793
aS'ypb2'
p4794
aa(lp4795
S't_set/HDUR--1307893631.jpg'
p4796
aS'HDUR'
p4797
aa(lp4798
S't_set/VKF4--1167941245.jpg'
p4799
aS'VKF4'
p4800
aa(lp4801
S't_set/hzvg.jpg'
p4802
aS'hzvg'
p4803
aa(lp4804
S't_set/f3pd--23450727.jpg'
p4805
aS'f3pd'
p4806
aa(lp4807
S't_set/QE3P--1196066611.jpg'
p4808
aS'QE3P'
p4809
aa(lp4810
S't_set/JF3S--1309735948.jpg'
p4811
aS'JF3S'
p4812
aa(lp4813
S't_set/jzwm--315338197.jpg'
p4814
aS'jzwm'
p4815
aa(lp4816
S't_set/C3PD.jpg'
p4817
aS'C3PD'
p4818
aa(lp4819
S't_set/SG5U--1019366645.jpg'
p4820
aS'SG5U'
p4821
aa(lp4822
S't_set/SD4R--534790157.jpg'
p4823
aS'SD4R'
p4824
aa(lp4825
S't_set/2PJZ--788621284.jpg'
p4826
aS'2PJZ'
p4827
aa(lp4828
S't_set/QE2S.jpg'
p4829
aS'QE2S'
p4830
aa(lp4831
S't_set/NAZM--866821335.jpg'
p4832
aS'NAZM'
p4833
aa(lp4834
S't_set/VG7U.jpg'
p4835
aS'VG7U'
p4836
aa(lp4837
S't_set/XJ9V--80236499.jpg'
p4838
aS'XJ9V'
p4839
aa(lp4840
S't_set/j7th.jpg'
p4841
aS'j7th'
p4842
aa(lp4843
S't_set/JAWH--864683330.jpg'
p4844
aS'JAWH'
p4845
aa(lp4846
S't_set/C4QE.jpg'
p4847
aS'C4QE'
p4848
aa(lp4849
S't_set/3PDA--217977033.jpg'
p4850
aS'3PDA'
p4851
aa(lp4852
S't_set/e6sn.jpg'
p4853
aS'e6sn'
p4854
aa(lp4855
S't_set/AWM9.jpg'
p4856
aS'AWM9'
p4857
aa(lp4858
S't_set/VMG4.jpg'
p4859
aS'VMG4'
p4860
aa(lp4861
S't_set/UJFW--206741599.jpg'
p4862
aS'UJFW'
p4863
aa(lp4864
S't_set/PD2R.jpg'
p4865
aS'PD2R'
p4866
aa(lp4867
S't_set/j6vh.jpg'
p4868
aS'j6vh'
p4869
aa(lp4870
S't_set/8xje--869047551.jpg'
p4871
aS'8xje'
p4872
aa(lp4873
S't_set/3PDA--1184285837.jpg'
p4874
aS'3PDA'
p4875
aa(lp4876
S't_set/G4RF--341747352.jpg'
p4877
aS'G4RF'
p4878
aa(lp4879
S't_set/VHDU.jpg'
p4880
aS'VHDU'
p4881
aa(lp4882
S't_set/b2pj--380651767.jpg'
p4883
aS'b2pj'
p4884
aa(lp4885
S't_set/MGXU--694223881.jpg'
p4886
aS'MGXU'
p4887
aa(lp4888
S't_set/5UG7--1137123009.jpg'
p4889
aS'5UG7'
p4890
aa(lp4891
S't_set/XNJZ--663751146.jpg'
p4892
aS'XNJZ'
p4893
aa(lp4894
S't_set/UG7T.jpg'
p4895
aS'UG7T'
p4896
aa(lp4897
S't_set/evrd--783921957.jpg'
p4898
aS'evrd'
p4899
aa(lp4900
S't_set/PB2N--473784178.jpg'
p4901
aS'PB2N'
p4902
aa(lp4903
S't_set/6SND--648261373.jpg'
p4904
aS'6SND'
p4905
aa(lp4906
S't_set/QE2P--103243150.jpg'
p4907
aS'QE2P'
p4908
aa(lp4909
S't_set/bxpj--83040600.jpg'
p4910
aS'bxpj'
p4911
aa(lp4912
S't_set/KAXJ.jpg'
p4913
aS'KAXJ'
p4914
aa(lp4915
S't_set/kgxt.jpg'
p4916
aS'kgxt'
p4917
aa(lp4918
S't_set/bypj.jpg'
p4919
aS'bypj'
p4920
aa(lp4921
S't_set/NAWM--845260448.jpg'
p4922
aS'NAWM'
p4923
aa(lp4924
S't_set/DZVK.jpg'
p4925
aS'DZVK'
p4926
aa(lp4927
S't_set/DZMB--763387490.jpg'
p4928
aS'DZMB'
p4929
aa(lp4930
S't_set/RD4Q--211878002.jpg'
p4931
aS'RD4Q'
p4932
aa(lp4933
S't_set/VK8X--29865393.jpg'
p4934
aS'VK8X'
p4935
aa(lp4936
S't_set/WM9Y.jpg'
p4937
aS'WM9Y'
p4938
aa(lp4939
S't_set/3TEA--773627653.jpg'
p4940
aS'3TEA'
p4941
aa(lp4942
S't_set/VGCU.jpg'
p4943
aS'VGCU'
p4944
aa(lp4945
S't_set/M8XJ--340536278.jpg'
p4946
aS'M8XJ'
p4947
aa(lp4948
S't_set/7TQE.jpg'
p4949
aS'7TQE'
p4950
aa(lp4951
S't_set/QC3P.jpg'
p4952
aS'QC3P'
p4953
aa(lp4954
S't_set/SGDU--12645543.jpg'
p4955
aS'SGDU'
p4956
aa(lp4957
S't_set/B2PJ.jpg'
p4958
aS'B2PJ'
p4959
aa(lp4960
S't_set/bxnh.jpg'
p4961
aS'bxnh'
p4962
aa(lp4963
S't_set/AWN9--790955736.jpg'
p4964
aS'AWN9'
p4965
aa(lp4966
S't_set/8ujf--997925332.jpg'
p4967
aS'8ujf'
p4968
aa(lp4969
S't_set/VK7X--92287648.jpg'
p4970
aS'VK7X'
p4971
aa(lp4972
S't_set/XPAZ--1116249874.jpg'
p4973
aS'XPAZ'
p4974
aa(lp4975
S't_set/E3PD--907605897.jpg'
p4976
aS'E3PD'
p4977
aa(lp4978
S't_set/WJ9V--585161706.jpg'
p4979
aS'WJ9V'
p4980
aa(lp4981
S't_set/EASN--1228584102.jpg'
p4982
aS'EASN'
p4983
aa(lp4984
S't_set/XKAW--122834814.jpg'
p4985
aS'XKAW'
p4986
aa(lp4987
S't_set/AWH8.jpg'
p4988
aS'AWH8'
p4989
aa(lp4990
S't_set/KGXT--866350535.jpg'
p4991
aS'KGXT'
p4992
aa(lp4993
S't_set/F3QE--1274564667.jpg'
p4994
aS'F3QE'
p4995
aa(lp4996
S't_set/sgcy.jpg'
p4997
aS'sgcy'
p4998
aa(lp4999
S't_set/VKFX.jpg'
p5000
aS'VKFX'
p5001
aa(lp5002
S't_set/ZMBY.jpg'
p5003
aS'ZMBY'
p5004
aa(lp5005
S't_set/TE5S--1086232102.jpg'
p5006
aS'TE5S'
p5007
aa(lp5008
S't_set/GCZQ.jpg'
p5009
aS'GCZQ'
p5010
aa(lp5011
S't_set/GDUQ--128528110.jpg'
p5012
aS'GDUQ'
p5013
aa(lp5014
S't_set/9YMB.jpg'
p5015
aS'9YMB'
p5016
aa(lp5017
S't_set/GXUJ.jpg'
p5018
aS'GXUJ'
p5019
aa(lp5020
S't_set/kf4t.jpg'
p5021
aS'kf4t'
p5022
aa(lp5023
S't_set/YPAX.jpg'
p5024
aS'YPAX'
p5025
aa(lp5026
S't_set/SHDZ--76224184.jpg'
p5027
aS'SHDZ'
p5028
aa(lp5029
S't_set/RCYQ.jpg'
p5030
aS'RCYQ'
p5031
aa(lp5032
S't_set/SD4R--1054431878.jpg'
p5033
aS'SD4R'
p5034
aa(lp5035
S't_set/sh5r.jpg'
p5036
aS'sh5r'
p5037
aa(lp5038
S't_set/ARNC--111096558.jpg'
p5039
aS'ARNC'
p5040
aa(lp5041
S't_set/UJEV.jpg'
p5042
aS'UJEV'
p5043
aa(lp5044
S't_set/G4TF--456397389.jpg'
p5045
aS'G4TF'
p5046
aa(lp5047
S't_set/sd4r--201243315.jpg'
p5048
aS'sd4r'
p5049
aa(lp5050
S't_set/pj6v--939092232.jpg'
p5051
aS'pj6v'
p5052
aa(lp5053
S't_set/UJE2.jpg'
p5054
aS'UJE2'
p5055
aa(lp5056
S't_set/7UQE.jpg'
p5057
aS'7UQE'
p5058
aa(lp5059
S't_set/kawm.jpg'
p5060
aS'kawm'
p5061
aa(lp5062
S't_set/B3PD--358882768.jpg'
p5063
aS'B3PD'
p5064
aa(lp5065
S't_set/PDAR.jpg'
p5066
aS'PDAR'
p5067
aa(lp5068
S't_set/xuf6--1081571867.jpg'
p5069
aS'xuf6'
p5070
aa(lp5071
S't_set/RGCY--1067544972.jpg'
p5072
aS'RGCY'
p5073
aa(lp5074
S't_set/MBXP.jpg'
p5075
aS'MBXP'
p5076
aa(lp5077
S't_set/HE2R.jpg'
p5078
aS'HE2R'
p5079
aa(lp5080
S't_set/GXTH--121304041.jpg'
p5081
aS'GXTH'
p5082
aa(lp5083
S't_set/M8XK--466639774.jpg'
p5084
aS'M8XK'
p5085
aa(lp5086
S't_set/GCTQ.jpg'
p5087
aS'GCTQ'
p5088
aa(lp5089
S't_set/UQF3--97169260.jpg'
p5090
aS'UQF3'
p5091
aa(lp5092
S't_set/VG7U--1019551650.jpg'
p5093
aS'VG7U'
p5094
aa(lp5095
S't_set/KGXT--236740300.jpg'
p5096
aS'KGXT'
p5097
aa(lp5098
S't_set/WH8U.jpg'
p5099
aS'WH8U'
p5100
aa(lp5101
S't_set/tjev--389610448.jpg'
p5102
aS'tjev'
p5103
aa(lp5104
S't_set/arn9.jpg'
p5105
aS'arn9'
p5106
aa(lp5107
S't_set/f6th.jpg'
p5108
aS'f6th'
p5109
aa(lp5110
S't_set/ZQB2.jpg'
p5111
aS'ZQB2'
p5112
aa(lp5113
S't_set/QE3P.jpg'
p5114
aS'QE3P'
p5115
aa(lp5116
S't_set/sgdu--997968395.jpg'
p5117
aS'sgdu'
p5118
aa(lp5119
S't_set/uf6t--711000983.jpg'
p5120
aS'uf6t'
p5121
aa(lp5122
S't_set/KAXJ--901360158.jpg'
p5123
aS'KAXJ'
p5124
aa(lp5125
S't_set/SGDZ--737814628.jpg'
p5126
aS'SGDZ'
p5127
aa(lp5128
S't_set/pe2n.jpg'
p5129
aS'pe2n'
p5130
aa(lp5131
S't_set/YPAX--1066203586.jpg'
p5132
aS'YPAX'
p5133
aa(lp5134
S't_set/G5RF--493377271.jpg'
p5135
aS'G5RF'
p5136
aa(lp5137
S't_set/sg4u--619793794.jpg'
p5138
aS'sg4u'
p5139
aa(lp5140
S't_set/ctqe.jpg'
p5141
aS'ctqe'
p5142
aa(lp5143
S't_set/nhyv.jpg'
p5144
aS'nhyv'
p5145
aa(lp5146
S't_set/JZWH--993341876.jpg'
p5147
aS'JZWH'
p5148
aa(lp5149
S't_set/AWNH--505167745.jpg'
p5150
aS'AWNH'
p5151
aa(lp5152
S't_set/awnh.jpg'
p5153
aS'awnh'
p5154
aa(lp5155
S't_set/ypk7--836153038.jpg'
p5156
aS'ypk7'
p5157
aa(lp5158
S't_set/TH5U--300031808.jpg'
p5159
aS'TH5U'
p5160
aa(lp5161
S't_set/ypax.jpg'
p5162
aS'ypax'
p5163
aa(lp5164
S't_set/BYPA.jpg'
p5165
aS'BYPA'
p5166
aa(lp5167
S't_set/d2rc.jpg'
p5168
aS'd2rc'
p5169
aa(lp5170
S't_set/te6s.jpg'
p5171
aS'te6s'
p5172
aa(lp5173
S't_set/M9YK--574444831.jpg'
p5174
aS'M9YK'
p5175
aa(lp5176
S't_set/3pea.jpg'
p5177
aS'3pea'
p5178
aa(lp5179
S't_set/EVRD.jpg'
p5180
aS'EVRD'
p5181
aa(lp5182
S't_set/THDV.jpg'
p5183
aS'THDV'
p5184
aa(lp5185
S't_set/PB2N--1213607610.jpg'
p5186
aS'PB2N'
p5187
aa(lp5188
S't_set/XJEV.jpg'
p5189
aS'XJEV'
p5190
aa(lp5191
S't_set/9vkg.jpg'
p5192
aS'9vkg'
p5193
aa(lp5194
S't_set/XUF6.jpg'
p5195
aS'XUF6'
p5196
aa(lp5197
S't_set/GDZQ--267637844.jpg'
p5198
aS'GDZQ'
p5199
aa(lp5200
S't_set/yug7--864943359.jpg'
p5201
aS'yug7'
p5202
aa(lp5203
S't_set/BXNJ.jpg'
p5204
aS'BXNJ'
p5205
aa(lp5206
S't_set/h9vk.jpg'
p5207
aS'h9vk'
p5208
aa(lp5209
S't_set/9zmb--495419475.jpg'
p5210
aS'9zmb'
p5211
aa(lp5212
S't_set/QC3P--18534873.jpg'
p5213
aS'QC3P'
p5214
aa(lp5215
S't_set/n9vk.jpg'
p5216
aS'n9vk'
p5217
aa(lp5218
S't_set/MGXU--724503001.jpg'
p5219
aS'MGXU'
p5220
aa(lp5221
S't_set/DVRC--384986111.jpg'
p5222
aS'DVRC'
p5223
aa(lp5224
S't_set/WH8U--80768696.jpg'
p5225
aS'WH8U'
p5226
aa(lp5227
S't_set/YVK7--500984469.jpg'
p5228
aS'YVK7'
p5229
aa(lp5230
S't_set/E3PD--774261251.jpg'
p5231
aS'E3PD'
p5232
aa(lp5233
S't_set/RCYP--782053182.jpg'
p5234
aS'RCYP'
p5235
aa(lp5236
S't_set/7wh9--31877908.jpg'
p5237
aS'7wh9'
p5238
aa(lp5239
S't_set/MG5U--785220487.jpg'
p5240
aS'MG5U'
p5241
aa(lp5242
S't_set/3pka--525244469.jpg'
p5243
aS'3pka'
p5244
aa(lp5245
S't_set/evrg.jpg'
p5246
aS'evrg'
p5247
aa(lp5248
S't_set/KAXT.jpg'
p5249
aS'KAXT'
p5250
aa(lp5251
S't_set/WM8V--44435320.jpg'
p5252
aS'WM8V'
p5253
aa(lp5254
S't_set/KAWM--661005982.jpg'
p5255
aS'KAWM'
p5256
aa(lp5257
S't_set/F3TE--341243981.jpg'
p5258
aS'F3TE'
p5259
aa(lp5260
S't_set/6snd.jpg'
p5261
aS'6snd'
p5262
aa(lp5263
S't_set/kaxn--1216975980.jpg'
p5264
aS'kaxn'
p5265
aa(lp5266
S't_set/D2RC.jpg'
p5267
aS'D2RC'
p5268
aa(lp5269
S't_set/2SD4--20042245.jpg'
p5270
aS'2SD4'
p5271
aa(lp5272
S't_set/PEAW--1069067125.jpg'
p5273
aS'PEAW'
p5274
aa(lp5275
S't_set/PDZQ--647643579.jpg'
p5276
aS'PDZQ'
p5277
aa(lp5278
S't_set/K8UJ--1234301963.jpg'
p5279
aS'K8UJ'
p5280
aa(lp5281
S't_set/NHYU.jpg'
p5282
aS'NHYU'
p5283
aa(lp5284
S't_set/YPK7--407633894.jpg'
p5285
aS'YPK7'
p5286
aa(lp5287
S't_set/SG5R--1130072213.jpg'
p5288
aS'SG5R'
p5289
aa(lp5290
S't_set/SGDU.jpg'
p5291
aS'SGDU'
p5292
aa(lp5293
S't_set/kawm--673982737.jpg'
p5294
aS'kawm'
p5295
aa(lp5296
S't_set/dncy.jpg'
p5297
aS'dncy'
p5298
aa(lp5299
S't_set/PB2N--373175179.jpg'
p5300
aS'PB2N'
p5301
aa(lp5302
S't_set/3sd5.jpg'
p5303
aS'3sd5'
p5304
aa(lp5305
S't_set/7WHE.jpg'
p5306
aS'7WHE'
p5307
aa(lp5308
S't_set/BSNA--944130680.jpg'
p5309
aS'BSNA'
p5310
aa(lp5311
S't_set/RDZQ.jpg'
p5312
aS'RDZQ'
p5313
aa(lp5314
S't_set/TH6S.jpg'
p5315
aS'TH6S'
p5316
aa(lp5317
S't_set/yuj7--656983964.jpg'
p5318
aS'yuj7'
p5319
aa(lp5320
S't_set/f7tp--330166562.jpg'
p5321
aS'f7tp'
p5322
aa(lp5323
S't_set/J7WH.jpg'
p5324
aS'J7WH'
p5325
aa(lp5326
S't_set/kaxn--677077793.jpg'
p5327
aS'kaxn'
p5328
aa(lp5329
S't_set/PJZW--908904533.jpg'
p5330
aS'PJZW'
p5331
aa(lp5332
S't_set/GCYP.jpg'
p5333
aS'GCYP'
p5334
aa(lp5335
S't_set/CUQE--35240983.jpg'
p5336
aS'CUQE'
p5337
aa(lp5338
S't_set/ebsn.jpg'
p5339
aS'ebsn'
p5340
aa(lp5341
S't_set/awth.jpg'
p5342
aS'awth'
p5343
aa(lp5344
S't_set/9YKA--581136676.jpg'
p5345
aS'9YKA'
p5346
aa(lp5347
S't_set/VM8U.jpg'
p5348
aS'VM8U'
p5349
aa(lp5350
S't_set/AWMH--1089450414.jpg'
p5351
aS'AWMH'
p5352
aa(lp5353
S't_set/QB2P--1269348861.jpg'
p5354
aS'QB2P'
p5355
aa(lp5356
S't_set/tpa2.jpg'
p5357
aS'tpa2'
p5358
aa(lp5359
S't_set/PDZW--613820153.jpg'
p5360
aS'PDZW'
p5361
aa(lp5362
S't_set/RGCT.jpg'
p5363
aS'RGCT'
p5364
aa(lp5365
S't_set/VKFX--447258297.jpg'
p5366
aS'VKFX'
p5367
aa(lp5368
S't_set/BSPA--859295709.jpg'
p5369
aS'BSPA'
p5370
aa(lp5371
S't_set/axth.jpg'
p5372
aS'axth'
p5373
aa(lp5374
S't_set/czqk.jpg'
p5375
aS'czqk'
p5376
aa(lp5377
S't_set/TPAZ.jpg'
p5378
aS'TPAZ'
p5379
aa(lp5380
S't_set/czmb.jpg'
p5381
aS'czmb'
p5382
aa(lp5383
S't_set/EAXN--613644845.jpg'
p5384
aS'EAXN'
p5385
aa(lp5386
S't_set/ZQKA--1294931463.jpg'
p5387
aS'ZQKA'
p5388
aa(lp5389
S't_set/mbxu--1294691410.jpg'
p5390
aS'mbxu'
p5391
aa(lp5392
S't_set/FWSD.jpg'
p5393
aS'FWSD'
p5394
aa(lp5395
S't_set/tqe2--514146630.jpg'
p5396
aS'tqe2'
p5397
aa(lp5398
S't_set/SG4R--958249271.jpg'
p5399
aS'SG4R'
p5400
aa(lp5401
S't_set/ZNCY.jpg'
p5402
aS'ZNCY'
p5403
aa(lp5404
S't_set/MGXU--412377029.jpg'
p5405
aS'MGXU'
p5406
aa(lp5407
S't_set/7tqe.jpg'
p5408
aS'7tqe'
p5409
aa(lp5410
S't_set/8VKF--646185148.jpg'
p5411
aS'8VKF'
p5412
aa(lp5413
S't_set/XKAW.jpg'
p5414
aS'XKAW'
p5415
aa(lp5416
S't_set/b2nc--173232006.jpg'
p5417
aS'b2nc'
p5418
aa(lp5419
S't_set/9wmg.jpg'
p5420
aS'9wmg'
p5421
aa(lp5422
S't_set/NDZQ--538360283.jpg'
p5423
aS'NDZQ'
p5424
aa(lp5425
S't_set/K8XJ--163653395.jpg'
p5426
aS'K8XJ'
p5427
aa(lp5428
S't_set/ypb2--23657673.jpg'
p5429
aS'ypb2'
p5430
aa(lp5431
S't_set/F3TE--779781101.jpg'
p5432
aS'F3TE'
p5433
aa(lp5434
S't_set/tpa2--810896592.jpg'
p5435
aS'tpa2'
p5436
aa(lp5437
S't_set/PDZV.jpg'
p5438
aS'PDZV'
p5439
aa(lp5440
S't_set/uj7t--669096995.jpg'
p5441
aS'uj7t'
p5442
aa(lp5443
S't_set/YUJ7--1114378164.jpg'
p5444
aS'YUJ7'
p5445
aa(lp5446
S't_set/VK7U--297169358.jpg'
p5447
aS'VK7U'
p5448
aa(lp5449
S't_set/UQF3.jpg'
p5450
aS'UQF3'
p5451
aa(lp5452
S't_set/PDAW.jpg'
p5453
aS'PDAW'
p5454
aa(lp5455
S't_set/GXTF--674676703.jpg'
p5456
aS'GXTF'
p5457
aa(lp5458
S't_set/VMGX--259562499.jpg'
p5459
aS'VMGX'
p5460
aa(lp5461
S't_set/UF6T--853138825.jpg'
p5462
aS'UF6T'
p5463
aa(lp5464
S't_set/2NJZ.jpg'
p5465
aS'2NJZ'
p5466
aa(lp5467
S't_set/ZRCY--476259720.jpg'
p5468
aS'ZRCY'
p5469
aa(lp5470
S't_set/cypk.jpg'
p5471
aS'cypk'
p5472
aa(lp5473
S't_set/jf3s.jpg'
p5474
aS'jf3s'
p5475
aa(lp5476
S't_set/E2RC--1027695120.jpg'
p5477
aS'E2RC'
p5478
aa(lp5479
S't_set/3PDA--124789921.jpg'
p5480
aS'3PDA'
p5481
aa(lp5482
S't_set/7UQE--271845832.jpg'
p5483
aS'7UQE'
p5484
aa(lp5485
S't_set/E5RF.jpg'
p5486
aS'E5RF'
p5487
aa(lp5488
S't_set/QEAR--920632405.jpg'
p5489
aS'QEAR'
p5490
aa(lp5491
S't_set/XNAZ.jpg'
p5492
aS'XNAZ'
p5493
aa(lp5494
S't_set/g5uf--1204162031.jpg'
p5495
aS'g5uf'
p5496
aa(lp5497
S't_set/5UGC.jpg'
p5498
aS'5UGC'
p5499
aa(lp5500
S't_set/2RDZ.jpg'
p5501
aS'2RDZ'
p5502
aa(lp5503
S't_set/xjfw.jpg'
p5504
aS'xjfw'
p5505
aa(lp5506
S't_set/SD4R--592947969.jpg'
p5507
aS'SD4R'
p5508
aa(lp5509
S't_set/ZQBY.jpg'
p5510
aS'ZQBY'
p5511
aa(lp5512
S't_set/XJ9W.jpg'
p5513
aS'XJ9W'
p5514
aa(lp5515
S't_set/BXN9--43567404.jpg'
p5516
aS'BXN9'
p5517
aa(lp5518
S't_set/gxtf.jpg'
p5519
aS'gxtf'
p5520
aa(lp5521
S't_set/RCYP--678915705.jpg'
p5522
aS'RCYP'
p5523
aa(lp5524
S't_set/f6tp.jpg'
p5525
aS'f6tp'
p5526
aa(lp5527
S't_set/ZQK7.jpg'
p5528
aS'ZQK7'
p5529
aa(lp5530
S't_set/NCYM.jpg'
p5531
aS'NCYM'
p5532
aa(lp5533
S't_set/J7WH--779707229.jpg'
p5534
aS'J7WH'
p5535
aa(lp5536
S't_set/XN9Y.jpg'
p5537
aS'XN9Y'
p5538
aa(lp5539
S't_set/6SHD.jpg'
p5540
aS'6SHD'
p5541
aa(lp5542
S't_set/AXNH--1004543792.jpg'
p5543
aS'AXNH'
p5544
aa(lp5545
S't_set/YUF6--1290307450.jpg'
p5546
aS'YUF6'
p5547
aa(lp5548
S't_set/XNJ6--553570247.jpg'
p5549
aS'XNJ6'
p5550
aa(lp5551
S't_set/VK7T--37915168.jpg'
p5552
aS'VK7T'
p5553
aa(lp5554
S't_set/YVG7--455459090.jpg'
p5555
aS'YVG7'
p5556
aa(lp5557
S't_set/BSPD--274964300.jpg'
p5558
aS'BSPD'
p5559
aa(lp5560
S't_set/HD2R--232682226.jpg'
p5561
aS'HD2R'
p5562
aa(lp5563
S't_set/6VGD--1287660098.jpg'
p5564
aS'6VGD'
p5565
aa(lp5566
S't_set/J6VH.jpg'
p5567
aS'J6VH'
p5568
aa(lp5569
S't_set/MG4U.jpg'
p5570
aS'MG4U'
p5571
aa(lp5572
S't_set/RMBY--4114261.jpg'
p5573
aS'RMBY'
p5574
aa(lp5575
S't_set/MGYU.jpg'
p5576
aS'MGYU'
p5577
aa(lp5578
S't_set/M9VK--450094797.jpg'
p5579
aS'M9VK'
p5580
aa(lp5581
S't_set/XNAZ--234077270.jpg'
p5582
aS'XNAZ'
p5583
aa(lp5584
S't_set/ZQM8--982898447.jpg'
p5585
aS'ZQM8'
p5586
aa(lp5587
S't_set/TPE2.jpg'
p5588
aS'TPE2'
p5589
aa(lp5590
S't_set/hevr.jpg'
p5591
aS'hevr'
p5592
aa(lp5593
S't_set/5rfc.jpg'
p5594
aS'5rfc'
p5595
aa(lp5596
S't_set/6SHD--626951715.jpg'
p5597
aS'6SHD'
p5598
aa(lp5599
S't_set/BYPJ--1292046820.jpg'
p5600
aS'BYPJ'
p5601
aa(lp5602
S't_set/RCYP.jpg'
p5603
aS'RCYP'
p5604
aa(lp5605
S't_set/THDZ.jpg'
p5606
aS'THDZ'
p5607
aa(lp5608
S't_set/zmby--377973174.jpg'
p5609
aS'zmby'
p5610
aa(lp5611
S't_set/yvk7--1111477212.jpg'
p5612
aS'yvk7'
p5613
aa(lp5614
S't_set/PK7W--721255088.jpg'
p5615
aS'PK7W'
p5616
aa(lp5617
S't_set/2NCZ.jpg'
p5618
aS'2NCZ'
p5619
aa(lp5620
S't_set/5RFC.jpg'
p5621
aS'5RFC'
p5622
aa(lp5623
S't_set/shdu--715002091.jpg'
p5624
aS'shdu'
p5625
aa(lp5626
S't_set/UFCT.jpg'
p5627
aS'UFCT'
p5628
aa(lp5629
S't_set/HDUR--409424090.jpg'
p5630
aS'HDUR'
p5631
aa(lp5632
S't_set/SD4R--246317669.jpg'
p5633
aS'SD4R'
p5634
aa(lp5635
S't_set/MBXN.jpg'
p5636
aS'MBXN'
p5637
aa(lp5638
S't_set/m9vk.jpg'
p5639
aS'm9vk'
p5640
aa(lp5641
S't_set/6shd.jpg'
p5642
aS'6shd'
p5643
aa(lp5644
S't_set/TH5S--469306450.jpg'
p5645
aS'TH5S'
p5646
aa(lp5647
S't_set/AWMG.jpg'
p5648
aS'AWMG'
p5649
aa(lp5650
S't_set/NH5V--1155255731.jpg'
p5651
aS'NH5V'
p5652
aa(lp5653
S't_set/BXJ9.jpg'
p5654
aS'BXJ9'
p5655
aa(lp5656
S't_set/H5VG.jpg'
p5657
aS'H5VG'
p5658
aa(lp5659
S't_set/XNH6--921576780.jpg'
p5660
aS'XNH6'
p5661
aa(lp5662
S't_set/EAXN--1107266256.jpg'
p5663
aS'EAXN'
p5664
aa(lp5665
S't_set/QK8X.jpg'
p5666
aS'QK8X'
p5667
aa(lp5668
S't_set/MBYU--1024472281.jpg'
p5669
aS'MBYU'
p5670
aa(lp5671
S't_set/ymbx.jpg'
p5672
aS'ymbx'
p5673
aa(lp5674
S't_set/DUQC.jpg'
p5675
aS'DUQC'
p5676
aa(lp5677
S't_set/RM8Y--1022602952.jpg'
p5678
aS'RM8Y'
p5679
aa(lp5680
S't_set/VK7U.jpg'
p5681
aS'VK7U'
p5682
aa(lp5683
S't_set/DZQK.jpg'
p5684
aS'DZQK'
p5685
aa(lp5686
S't_set/AZNH--196486653.jpg'
p5687
aS'AZNH'
p5688
aa(lp5689
S't_set/CYVK.jpg'
p5690
aS'CYVK'
p5691
aa(lp5692
S't_set/HDUR--1108199944.jpg'
p5693
aS'HDUR'
p5694
aa(lp5695
S't_set/RC4Q--303596545.jpg'
p5696
aS'RC4Q'
p5697
aa(lp5698
S't_set/AWM9--1042661607.jpg'
p5699
aS'AWM9'
p5700
aa(lp5701
S't_set/YPAX--1275296124.jpg'
p5702
aS'YPAX'
p5703
aa(lp5704
S't_set/NHZV--511718552.jpg'
p5705
aS'NHZV'
p5706
aa(lp5707
S't_set/ZNCY--376664832.jpg'
p5708
aS'ZNCY'
p5709
aa(lp5710
S't_set/5UF6--104839516.jpg'
p5711
aS'5UF6'
p5712
aa(lp5713
S't_set/paxn--939345831.jpg'
p5714
aS'paxn'
p5715
aa(lp5716
S't_set/AXTH.jpg'
p5717
aS'AXTH'
p5718
aa(lp5719
S't_set/8XJA.jpg'
p5720
aS'8XJA'
p5721
aa(lp5722
S't_set/GDZQ--1084385843.jpg'
p5723
aS'GDZQ'
p5724
aa(lp5725
S't_set/PJZW--481278389.jpg'
p5726
aS'PJZW'
p5727
aa(lp5728
S't_set/th5u.jpg'
p5729
aS'th5u'
p5730
aa(lp5731
S't_set/mh5u--581975353.jpg'
p5732
aS'mh5u'
p5733
aa(lp5734
S't_set/H5UG--605234850.jpg'
p5735
aS'H5UG'
p5736
aa(lp5737
S't_set/E5SG--192074743.jpg'
p5738
aS'E5SG'
p5739
aa(lp5740
S't_set/n9ym.jpg'
p5741
aS'n9ym'
p5742
aa(lp5743
S't_set/pdzn.jpg'
p5744
aS'pdzn'
p5745
aa(lp5746
S't_set/sgdz.jpg'
p5747
aS'sgdz'
p5748
aa(lp5749
S't_set/AWSG--542162065.jpg'
p5750
aS'AWSG'
p5751
aa(lp5752
S't_set/SGCZ--439788151.jpg'
p5753
aS'SGCZ'
p5754
aa(lp5755
S't_set/HYUG--534332601.jpg'
p5756
aS'HYUG'
p5757
aa(lp5758
S't_set/xpaw.jpg'
p5759
aS'xpaw'
p5760
aa(lp5761
S't_set/2PDZ.jpg'
p5762
aS'2PDZ'
p5763
aa(lp5764
S't_set/F6SP.jpg'
p5765
aS'F6SP'
p5766
aa(lp5767
S't_set/UKF3--884649930.jpg'
p5768
aS'UKF3'
p5769
aa(lp5770
S't_set/VK7X--103045658.jpg'
p5771
aS'VK7X'
p5772
aa(lp5773
S't_set/WMG4--70264309.jpg'
p5774
aS'WMG4'
p5775
aa(lp5776
S't_set/9zmg.jpg'
p5777
aS'9zmg'
p5778
aa(lp5779
S't_set/2NJZ--988540327.jpg'
p5780
aS'2NJZ'
p5781
aa(lp5782
S't_set/C3PJ.jpg'
p5783
aS'C3PJ'
p5784
aa(lp5785
S't_set/tebs--53106805.jpg'
p5786
aS'tebs'
p5787
aa(lp5788
S't_set/RF3S--481097783.jpg'
p5789
aS'RF3S'
p5790
aa(lp5791
S't_set/J9WS--714900027.jpg'
p5792
aS'J9WS'
p5793
aa(lp5794
S't_set/B2PD--855753221.jpg'
p5795
aS'B2PD'
p5796
aa(lp5797
S't_set/FWSD--1242462666.jpg'
p5798
aS'FWSD'
p5799
aa(lp5800
S't_set/NCYP.jpg'
p5801
aS'NCYP'
p5802
aa(lp5803
S't_set/JEVR.jpg'
p5804
aS'JEVR'
p5805
aa(lp5806
S't_set/BXNJ--1299950697.jpg'
p5807
aS'BXNJ'
p5808
aa(lp5809
S't_set/CYPK--917840084.jpg'
p5810
aS'CYPK'
p5811
aa(lp5812
S't_set/N9WM.jpg'
p5813
aS'N9WM'
p5814
aa(lp5815
S't_set/NCZM.jpg'
p5816
aS'NCZM'
p5817
aa(lp5818
S't_set/SG5R--303593841.jpg'
p5819
aS'SG5R'
p5820
aa(lp5821
S't_set/VK7W--1123355103.jpg'
p5822
aS'VK7W'
p5823
aa(lp5824
S't_set/UJFW.jpg'
p5825
aS'UJFW'
p5826
aa(lp5827
S't_set/bsna.jpg'
p5828
aS'bsna'
p5829
aa(lp5830
S't_set/H5SG.jpg'
p5831
aS'H5SG'
p5832
aa(lp5833
S't_set/4TEA.jpg'
p5834
aS'4TEA'
p5835
aa(lp5836
S't_set/F4TE--804139334.jpg'
p5837
aS'F4TE'
p5838
aa(lp5839
S't_set/zvk8.jpg'
p5840
aS'zvk8'
p5841
aa(lp5842
S't_set/XJ9W--1026025476.jpg'
p5843
aS'XJ9W'
p5844
aa(lp5845
S't_set/8yka.jpg'
p5846
aS'8yka'
p5847
aa(lp5848
S't_set/WTE5--1236279894.jpg'
p5849
aS'WTE5'
p5850
aa(lp5851
S't_set/NAWM--1207444804.jpg'
p5852
aS'NAWM'
p5853
aa(lp5854
S't_set/PJZW--258167481.jpg'
p5855
aS'PJZW'
p5856
aa(lp5857
S't_set/CYPK--1177021529.jpg'
p5858
aS'CYPK'
p5859
aa(lp5860
S't_set/BSPA--691670655.jpg'
p5861
aS'BSPA'
p5862
aa(lp5863
S't_set/VSD4--867949829.jpg'
p5864
aS'VSD4'
p5865
aa(lp5866
S't_set/sg5r--1194713567.jpg'
p5867
aS'sg5r'
p5868
aa(lp5869
S't_set/DURC--134202522.jpg'
p5870
aS'DURC'
p5871
aa(lp5872
S't_set/uqb3.jpg'
p5873
aS'uqb3'
p5874
aa(lp5875
S't_set/8YKA--224523901.jpg'
p5876
aS'8YKA'
p5877
aa(lp5878
S't_set/RC4Q--337494684.jpg'
p5879
aS'RC4Q'
p5880
aa(lp5881
S't_set/2NJZ--1094385517.jpg'
p5882
aS'2NJZ'
p5883
aa(lp5884
S't_set/BXNA--458844059.jpg'
p5885
aS'BXNA'
p5886
aa(lp5887
S't_set/G4TE--551436241.jpg'
p5888
aS'G4TE'
p5889
aa(lp5890
S't_set/vg7u--90918229.jpg'
p5891
aS'vg7u'
p5892
aa(lp5893
S't_set/SNCZ--822068098.jpg'
p5894
aS'SNCZ'
p5895
aa(lp5896
S't_set/BYKA.jpg'
p5897
aS'BYKA'
p5898
aa(lp5899
S't_set/G5RF--1191527981.jpg'
p5900
aS'G5RF'
p5901
aa(lp5902
S't_set/ZWM8--496684718.jpg'
p5903
aS'ZWM8'
p5904
aa(lp5905
S't_set/qe3s--897219374.jpg'
p5906
aS'qe3s'
p5907
aa(lp5908
S't_set/qe2s.jpg'
p5909
aS'qe2s'
p5910
aa(lp5911
S't_set/DAWM--857863389.jpg'
p5912
aS'DAWM'
p5913
aa(lp5914
S't_set/KFWT.jpg'
p5915
aS'KFWT'
p5916
aa(lp5917
S't_set/PJZV--759078328.jpg'
p5918
aS'PJZV'
p5919
aa(lp5920
S't_set/MBXP--1016682827.jpg'
p5921
aS'MBXP'
p5922
aa(lp5923
S't_set/3TEA--239783080.jpg'
p5924
aS'3TEA'
p5925
aa(lp5926
S't_set/ypaz--830229777.jpg'
p5927
aS'ypaz'
p5928
aa(lp5929
S't_set/BXNA--1090706459.jpg'
p5930
aS'BXNA'
p5931
aa(lp5932
S't_set/hyuj.jpg'
p5933
aS'hyuj'
p5934
aa(lp5935
S't_set/VKG4--974154249.jpg'
p5936
aS'VKG4'
p5937
aa(lp5938
S't_set/AWTH--146810067.jpg'
p5939
aS'AWTH'
p5940
aa(lp5941
S't_set/HYVK.jpg'
p5942
aS'HYVK'
p5943
aa(lp5944
S't_set/VSG4--1232996415.jpg'
p5945
aS'VSG4'
p5946
aa(lp5947
S't_set/zwm8.jpg'
p5948
aS'zwm8'
p5949
aa(lp5950
S't_set/9vsg.jpg'
p5951
aS'9vsg'
p5952
aa(lp5953
S't_set/UJFW--1104823006.jpg'
p5954
aS'UJFW'
p5955
aa(lp5956
S't_set/VH8U--197707262.jpg'
p5957
aS'VH8U'
p5958
aa(lp5959
S't_set/DZQM.jpg'
p5960
aS'DZQM'
p5961
aa(lp5962
S't_set/4TFB--391023739.jpg'
p5963
aS'4TFB'
p5964
aa(lp5965
S't_set/SNCZ--816325731.jpg'
p5966
aS'SNCZ'
p5967
aa(lp5968
S't_set/uj7w--625072132.jpg'
p5969
aS'uj7w'
p5970
aa(lp5971
S't_set/XPAW--343858014.jpg'
p5972
aS'XPAW'
p5973
aa(lp5974
S't_set/EVRC.jpg'
p5975
aS'EVRC'
p5976
aa(lp5977
S't_set/7UJE--1036741761.jpg'
p5978
aS'7UJE'
p5979
aa(lp5980
S't_set/qm8x.jpg'
p5981
aS'qm8x'
p5982
aa(lp5983
S't_set/XNAW--1289891118.jpg'
p5984
aS'XNAW'
p5985
aa(lp5986
S't_set/vsd4--316622174.jpg'
p5987
aS'vsd4'
p5988
aa(lp5989
S't_set/DZQC--454312891.jpg'
p5990
aS'DZQC'
p5991
aa(lp5992
S't_set/EASN--524665916.jpg'
p5993
aS'EASN'
p5994
aa(lp5995
S't_set/D2RC--503781943.jpg'
p5996
aS'D2RC'
p5997
aa(lp5998
S't_set/NHZV.jpg'
p5999
aS'NHZV'
p6000
aa(lp6001
S't_set/SNCZ--430905809.jpg'
p6002
aS'SNCZ'
p6003
aa(lp6004
S't_set/ypbx--677991650.jpg'
p6005
aS'ypbx'
p6006
aa(lp6007
S't_set/3PJZ--215194372.jpg'
p6008
aS'3PJZ'
p6009
aa(lp6010
S't_set/bxja.jpg'
p6011
aS'bxja'
p6012
aa(lp6013
S't_set/UJ6T.jpg'
p6014
aS'UJ6T'
p6015
aa(lp6016
S't_set/e2sd--710125430.jpg'
p6017
aS'e2sd'
p6018
aa(lp6019
S't_set/spdz.jpg'
p6020
aS'spdz'
p6021
aa(lp6022
S't_set/vh8u.jpg'
p6023
aS'vh8u'
p6024
aa(lp6025
S't_set/SE5R--997603872.jpg'
p6026
aS'SE5R'
p6027
aa(lp6028
S't_set/AWMG--913462953.jpg'
p6029
aS'AWMG'
p6030
aa(lp6031
S't_set/NAZM--1258033175.jpg'
p6032
aS'NAZM'
p6033
aa(lp6034
S't_set/TH6V.jpg'
p6035
aS'TH6V'
p6036
aa(lp6037
S't_set/BYKA--785454278.jpg'
p6038
aS'BYKA'
p6039
aa(lp6040
S't_set/wn9y.jpg'
p6041
aS'wn9y'
p6042
aa(lp6043
S't_set/UK7W.jpg'
p6044
aS'UK7W'
p6045
aa(lp6046
S't_set/VK7X.jpg'
p6047
aS'VK7X'
p6048
aa(lp6049
S't_set/mbyk.jpg'
p6050
aS'mbyk'
p6051
aa(lp6052
S't_set/E5RN--285086880.jpg'
p6053
aS'E5RN'
p6054
aa(lp6055
S't_set/VG7U--623774172.jpg'
p6056
aS'VG7U'
p6057
aa(lp6058
S't_set/HDZQ--901377491.jpg'
p6059
aS'HDZQ'
p6060
aa(lp6061
S't_set/ukfw.jpg'
p6062
aS'ukfw'
p6063
aa(lp6064
S't_set/j9ws.jpg'
p6065
aS'j9ws'
p6066
aa(lp6067
S't_set/FBTP--1228627507.jpg'
p6068
aS'FBTP'
p6069
aa(lp6070
S't_set/JZVK--1163921500.jpg'
p6071
aS'JZVK'
p6072
aa(lp6073
S't_set/GXUF.jpg'
p6074
aS'GXUF'
p6075
aa(lp6076
S't_set/B2PD--316359580.jpg'
p6077
aS'B2PD'
p6078
aa(lp6079
S't_set/uj7t.jpg'
p6080
aS'uj7t'
p6081
aa(lp6082
S't_set/qe3s.jpg'
p6083
aS'qe3s'
p6084
aa(lp6085
S't_set/UG7T--1312395972.jpg'
p6086
aS'UG7T'
p6087
aa(lp6088
S't_set/E5RG--780543624.jpg'
p6089
aS'E5RG'
p6090
aa(lp6091
S't_set/UJ6V.jpg'
p6092
aS'UJ6V'
p6093
aa(lp6094
S't_set/KAWM--462387389.jpg'
p6095
aS'KAWM'
p6096
aa(lp6097
S't_set/D4RF--1128993254.jpg'
p6098
aS'D4RF'
p6099
aa(lp6100
S't_set/VKF4--421337790.jpg'
p6101
aS'VKF4'
p6102
aa(lp6103
S't_set/5sgc.jpg'
p6104
aS'5sgc'
p6105
aa(lp6106
S't_set/5SGC--444472936.jpg'
p6107
aS'5SGC'
p6108
aa(lp6109
S't_set/QKAX.jpg'
p6110
aS'QKAX'
p6111
aa(lp6112
S't_set/uj6s.jpg'
p6113
aS'uj6s'
p6114
aa(lp6115
S't_set/uqe3.jpg'
p6116
aS'uqe3'
p6117
aa(lp6118
S't_set/D4QM--14256904.jpg'
p6119
aS'D4QM'
p6120
aa(lp6121
S't_set/RFBT--508250845.jpg'
p6122
aS'RFBT'
p6123
aa(lp6124
S't_set/G7TJ--969170727.jpg'
p6125
aS'G7TJ'
p6126
aa(lp6127
S't_set/VSG4--760838787.jpg'
p6128
aS'VSG4'
p6129
aa(lp6130
S't_set/JF3S--493195649.jpg'
p6131
aS'JF3S'
p6132
aa(lp6133
S't_set/RNCY--59645869.jpg'
p6134
aS'RNCY'
p6135
aa(lp6136
S't_set/7THE.jpg'
p6137
aS'7THE'
p6138
aa(lp6139
S't_set/9VRG--1079629999.jpg'
p6140
aS'9VRG'
p6141
aa(lp6142
S't_set/ZQM8--885425705.jpg'
p6143
aS'ZQM8'
p6144
aa(lp6145
S't_set/G5RF--397770041.jpg'
p6146
aS'G5RF'
p6147
aa(lp6148
S't_set/UQE3.jpg'
p6149
aS'UQE3'
p6150
aa(lp6151
S't_set/5RMC--103400171.jpg'
p6152
aS'5RMC'
p6153
aa(lp6154
S't_set/YUF7--898511977.jpg'
p6155
aS'YUF7'
p6156
aa(lp6157
S't_set/ypj7.jpg'
p6158
aS'ypj7'
p6159
aa(lp6160
S't_set/7tqe--188769593.jpg'
p6161
aS'7tqe'
p6162
aa(lp6163
S't_set/4TF6.jpg'
p6164
aS'4TF6'
p6165
aa(lp6166
S't_set/M8XK--503333670.jpg'
p6167
aS'M8XK'
p6168
aa(lp6169
S't_set/awsg.jpg'
p6170
aS'awsg'
p6171
aa(lp6172
S't_set/PDZW--927951249.jpg'
p6173
aS'PDZW'
p6174
aa(lp6175
S't_set/3SEA.jpg'
p6176
aS'3SEA'
p6177
aa(lp6178
S't_set/axth--69648287.jpg'
p6179
aS'axth'
p6180
aa(lp6181
S't_set/rd4q--91746767.jpg'
p6182
aS'rd4q'
p6183
aa(lp6184
S't_set/ypka.jpg'
p6185
aS'ypka'
p6186
aa(lp6187
S't_set/DURC.jpg'
p6188
aS'DURC'
p6189
aa(lp6190
S't_set/TFBS--832319835.jpg'
p6191
aS'TFBS'
p6192
aa(lp6193
S't_set/MBXU.jpg'
p6194
aS'MBXU'
p6195
aa(lp6196
S't_set/GXTF--18765924.jpg'
p6197
aS'GXTF'
p6198
aa(lp6199
S't_set/YMBX.jpg'
p6200
aS'YMBX'
p6201
aa(lp6202
S't_set/gcuq--542586398.jpg'
p6203
aS'gcuq'
p6204
aa(lp6205
S't_set/EARN.jpg'
p6206
aS'EARN'
p6207
aa(lp6208
S't_set/vrc3.jpg'
p6209
aS'vrc3'
p6210
aa(lp6211
S't_set/TH5S--1165171684.jpg'
p6212
aS'TH5S'
p6213
aa(lp6214
S't_set/RC4Q.jpg'
p6215
aS'RC4Q'
p6216
aa(lp6217
S't_set/PJZW--465102816.jpg'
p6218
aS'PJZW'
p6219
aa(lp6220
S't_set/5SGC--975450585.jpg'
p6221
aS'5SGC'
p6222
aa(lp6223
S't_set/PA2N.jpg'
p6224
aS'PA2N'
p6225
aa(lp6226
S't_set/AWJ9.jpg'
p6227
aS'AWJ9'
p6228
aa(lp6229
S't_set/VH8U--524132429.jpg'
p6230
aS'VH8U'
p6231
aa(lp6232
S't_set/JZWH.jpg'
p6233
aS'JZWH'
p6234
aa(lp6235
S't_set/FBTP.jpg'
p6236
aS'FBTP'
p6237
aa(lp6238
S't_set/XNH6--1044386269.jpg'
p6239
aS'XNH6'
p6240
aa(lp6241
S't_set/K7TJ.jpg'
p6242
aS'K7TJ'
p6243
aa(lp6244
S't_set/NJZV--1192320007.jpg'
p6245
aS'NJZV'
p6246
aa(lp6247
S't_set/SNCZ--256668659.jpg'
p6248
aS'SNCZ'
p6249
aa(lp6250
S't_set/SG5U--951988625.jpg'
p6251
aS'SG5U'
p6252
aa(lp6253
S't_set/QBXP.jpg'
p6254
aS'QBXP'
p6255
aa(lp6256
S't_set/d4qe.jpg'
p6257
aS'd4qe'
p6258
aa(lp6259
S't_set/rf4q.jpg'
p6260
aS'rf4q'
p6261
aa(lp6262
S't_set/PAZN--88868507.jpg'
p6263
aS'PAZN'
p6264
aa(lp6265
S't_set/AZNC.jpg'
p6266
aS'AZNC'
p6267
aa(lp6268
S't_set/5SNC--791128709.jpg'
p6269
aS'5SNC'
p6270
aa(lp6271
S't_set/D4RM--996200140.jpg'
p6272
aS'D4RM'
p6273
aa(lp6274
S't_set/bxnh--369286922.jpg'
p6275
aS'bxnh'
p6276
aa(lp6277
S't_set/XJFW--1247478270.jpg'
p6278
aS'XJFW'
p6279
aa(lp6280
S't_set/YPAZ--151818472.jpg'
p6281
aS'YPAZ'
p6282
aa(lp6283
S't_set/H6SG.jpg'
p6284
aS'H6SG'
p6285
aa(lp6286
S't_set/XNH5.jpg'
p6287
aS'XNH5'
p6288
aa(lp6289
S't_set/AXN9--1100492026.jpg'
p6290
aS'AXN9'
p6291
aa(lp6292
S't_set/AZMC--794117464.jpg'
p6293
aS'AZMC'
p6294
aa(lp6295
S't_set/WJEV--1080915063.jpg'
p6296
aS'WJEV'
p6297
aa(lp6298
S't_set/J7TH--572694960.jpg'
p6299
aS'J7TH'
p6300
aa(lp6301
S't_set/VM8X--252751260.jpg'
p6302
aS'VM8X'
p6303
aa(lp6304
S't_set/XUF6--218141758.jpg'
p6305
aS'XUF6'
p6306
aa(lp6307
S't_set/G7TQ--585837179.jpg'
p6308
aS'G7TQ'
p6309
aa(lp6310
S't_set/5SGC--1104966494.jpg'
p6311
aS'5SGC'
p6312
aa(lp6313
S't_set/SGCZ--707974303.jpg'
p6314
aS'SGCZ'
p6315
aa(lp6316
S't_set/RC3Q--1006627169.jpg'
p6317
aS'RC3Q'
p6318
aa(lp6319
S't_set/RC3P.jpg'
p6320
aS'RC3P'
p6321
aa(lp6322
S't_set/TPD2--606157433.jpg'
p6323
aS'TPD2'
p6324
aa(lp6325
S't_set/ypka--849788349.jpg'
p6326
aS'ypka'
p6327
aa(lp6328
S't_set/FWTH.jpg'
p6329
aS'FWTH'
p6330
aa(lp6331
S't_set/J7WH--1100096440.jpg'
p6332
aS'J7WH'
p6333
aa(lp6334
S't_set/VHDU--467530476.jpg'
p6335
aS'VHDU'
p6336
aa(lp6337
S't_set/rfbs.jpg'
p6338
aS'rfbs'
p6339
aa(lp6340
S't_set/2RCZ--748056814.jpg'
p6341
aS'2RCZ'
p6342
aa(lp6343
S't_set/CYQK--656239672.jpg'
p6344
aS'CYQK'
p6345
aa(lp6346
S't_set/znhy.jpg'
p6347
aS'znhy'
p6348
aa(lp6349
S't_set/WM8X.jpg'
p6350
aS'WM8X'
p6351
aa(lp6352
S't_set/9YMG--303143570.jpg'
p6353
aS'9YMG'
p6354
aa(lp6355
S't_set/xuj6.jpg'
p6356
aS'xuj6'
p6357
aa(lp6358
S't_set/QMBX.jpg'
p6359
aS'QMBX'
p6360
aa(lp6361
S't_set/3PDA.jpg'
p6362
aS'3PDA'
p6363
aa(lp6364
S't_set/VSG4--1270114770.jpg'
p6365
aS'VSG4'
p6366
aa(lp6367
S't_set/RDZQ--1116840379.jpg'
p6368
aS'RDZQ'
p6369
aa(lp6370
S't_set/TPA2.jpg'
p6371
aS'TPA2'
p6372
aa(lp6373
S't_set/SDZR.jpg'
p6374
aS'SDZR'
p6375
aa(lp6376
S't_set/hd2r.jpg'
p6377
aS'hd2r'
p6378
aa(lp6379
S't_set/UJ7W.jpg'
p6380
aS'UJ7W'
p6381
aa(lp6382
S't_set/vrf3--693312777.jpg'
p6383
aS'vrf3'
p6384
aa(lp6385
S't_set/B2PD--155169709.jpg'
p6386
aS'B2PD'
p6387
aa(lp6388
S't_set/4teb--474097084.jpg'
p6389
aS'4teb'
p6390
aa(lp6391
S't_set/vk7u--438824080.jpg'
p6392
aS'vk7u'
p6393
aa(lp6394
S't_set/XJ9V--390258260.jpg'
p6395
aS'XJ9V'
p6396
aa(lp6397
S't_set/FWSH--1261112237.jpg'
p6398
aS'FWSH'
p6399
aa(lp6400
S't_set/SEAR--166691180.jpg'
p6401
aS'SEAR'
p6402
aa(lp6403
S't_set/XN9W--220273501.jpg'
p6404
aS'XN9W'
p6405
aa(lp6406
S't_set/UF6T--970782846.jpg'
p6407
aS'UF6T'
p6408
aa(lp6409
S't_set/4QFB.jpg'
p6410
aS'4QFB'
p6411
aa(lp6412
S't_set/5RFC--808596302.jpg'
p6413
aS'5RFC'
p6414
aa(lp6415
S't_set/vg8u.jpg'
p6416
aS'vg8u'
p6417
aa(lp6418
S't_set/PDZN.jpg'
p6419
aS'PDZN'
p6420
aa(lp6421
S't_set/4rfb--876717537.jpg'
p6422
aS'4rfb'
p6423
aa(lp6424
S't_set/DAWM--975870297.jpg'
p6425
aS'DAWM'
p6426
aa(lp6427
S't_set/GXTF--272914905.jpg'
p6428
aS'GXTF'
p6429
aa(lp6430
S't_set/bxnj.jpg'
p6431
aS'bxnj'
p6432
aa(lp6433
S't_set/CZQK--478328613.jpg'
p6434
aS'CZQK'
p6435
aa(lp6436
S't_set/3pdz--548612867.jpg'
p6437
aS'3pdz'
p6438
aa(lp6439
S't_set/G7TQ--871121811.jpg'
p6440
aS'G7TQ'
p6441
aa(lp6442
S't_set/RC4Q--1016055862.jpg'
p6443
aS'RC4Q'
p6444
aa(lp6445
S't_set/AWM8.jpg'
p6446
aS'AWM8'
p6447
aa(lp6448
S't_set/HZVG--170789570.jpg'
p6449
aS'HZVG'
p6450
aa(lp6451
S't_set/BXUJ--924808422.jpg'
p6452
aS'BXUJ'
p6453
aa(lp6454
S't_set/PJZW.jpg'
p6455
aS'PJZW'
p6456
aa(lp6457
S't_set/JAWH--603778566.jpg'
p6458
aS'JAWH'
p6459
aa(lp6460
S't_set/DZQC--81509293.jpg'
p6461
aS'DZQC'
p6462
aa(lp6463
S't_set/NAZM.jpg'
p6464
aS'NAZM'
p6465
aa(lp6466
S't_set/E5SN--730502622.jpg'
p6467
aS'E5SN'
p6468
aa(lp6469
S't_set/6VGC.jpg'
p6470
aS'6VGC'
p6471
aa(lp6472
S't_set/8VRF--822464975.jpg'
p6473
aS'8VRF'
p6474
aa(lp6475
S't_set/8YKF.jpg'
p6476
aS'8YKF'
p6477
aa(lp6478
S't_set/D5RF--865722475.jpg'
p6479
aS'D5RF'
p6480
aa(lp6481
S't_set/bxka--810107278.jpg'
p6482
aS'bxka'
p6483
aa(lp6484
S't_set/BYUJ--844703872.jpg'
p6485
aS'BYUJ'
p6486
aa(lp6487
S't_set/M8YK.jpg'
p6488
aS'M8YK'
p6489
aa(lp6490
S't_set/WMHY.jpg'
p6491
aS'WMHY'
p6492
aa(lp6493
S't_set/GCZQ--756512511.jpg'
p6494
aS'GCZQ'
p6495
aa(lp6496
S't_set/kawj.jpg'
p6497
aS'kawj'
p6498
aa(lp6499
S't_set/6VGD--270219049.jpg'
p6500
aS'6VGD'
p6501
aa(lp6502
S't_set/VSG4--455274678.jpg'
p6503
aS'VSG4'
p6504
aa(lp6505
S't_set/b2pj.jpg'
p6506
aS'b2pj'
p6507
aa(lp6508
S't_set/KAXN.jpg'
p6509
aS'KAXN'
p6510
aa(lp6511
S't_set/YPJZ--1133948055.jpg'
p6512
aS'YPJZ'
p6513
aa(lp6514
S't_set/E5RG--1263796402.jpg'
p6515
aS'E5RG'
p6516
aa(lp6517
S't_set/K7UJ.jpg'
p6518
aS'K7UJ'
p6519
aa(lp6520
S't_set/ZVG8--687120774.jpg'
p6521
aS'ZVG8'
p6522
aa(lp6523
S't_set/G4UF--1261958738.jpg'
p6524
aS'G4UF'
p6525
aa(lp6526
S't_set/CTQB.jpg'
p6527
aS'CTQB'
p6528
aa(lp6529
S't_set/BYPJ.jpg'
p6530
aS'BYPJ'
p6531
aa(lp6532
S't_set/XTH6--1156872342.jpg'
p6533
aS'XTH6'
p6534
aa(lp6535
S't_set/GCTP--1229357826.jpg'
p6536
aS'GCTP'
p6537
aa(lp6538
S't_set/HYVG--582827569.jpg'
p6539
aS'HYVG'
p6540
aa(lp6541
S't_set/EVRF--683413132.jpg'
p6542
aS'EVRF'
p6543
aa(lp6544
S't_set/yvk7.jpg'
p6545
aS'yvk7'
p6546
aa(lp6547
S't_set/nawm.jpg'
p6548
aS'nawm'
p6549
aa(lp6550
S't_set/bxna--93939695.jpg'
p6551
aS'bxna'
p6552
aa(lp6553
S't_set/D5RM--1084080663.jpg'
p6554
aS'D5RM'
p6555
aa(lp6556
S't_set/RN9Y--462120978.jpg'
p6557
aS'RN9Y'
p6558
aa(lp6559
S't_set/B2ND--836610250.jpg'
p6560
aS'B2ND'
p6561
aa(lp6562
S't_set/THD2--566711959.jpg'
p6563
aS'THD2'
p6564
aa(lp6565
S't_set/PJZV--719792952.jpg'
p6566
aS'PJZV'
p6567
aa(lp6568
S't_set/EVRD--667962858.jpg'
p6569
aS'EVRD'
p6570
aa(lp6571
S't_set/YPB2--1140640471.jpg'
p6572
aS'YPB2'
p6573
aa(lp6574
S't_set/8VKF--789870870.jpg'
p6575
aS'8VKF'
p6576
aa(lp6577
S't_set/SG4T--1282894200.jpg'
p6578
aS'SG4T'
p6579
aa(lp6580
S't_set/8URF.jpg'
p6581
aS'8URF'
p6582
aa(lp6583
S't_set/PAXN--189337961.jpg'
p6584
aS'PAXN'
p6585
aa(lp6586
S't_set/VKGX--917118315.jpg'
p6587
aS'VKGX'
p6588
aa(lp6589
S't_set/4qea.jpg'
p6590
aS'4qea'
p6591
aa(lp6592
S't_set/MG5U--687645253.jpg'
p6593
aS'MG5U'
p6594
aa(lp6595
S't_set/XN9Z--162280019.jpg'
p6596
aS'XN9Z'
p6597
aa(lp6598
S't_set/sgcz--703849650.jpg'
p6599
aS'sgcz'
p6600
aa(lp6601
S't_set/ZMCY--25818289.jpg'
p6602
aS'ZMCY'
p6603
aa(lp6604
S't_set/TQB2--1264456342.jpg'
p6605
aS'TQB2'
p6606
aa(lp6607
S't_set/PA2N--671150593.jpg'
p6608
aS'PA2N'
p6609
aa(lp6610
S't_set/ARMB--263064929.jpg'
p6611
aS'ARMB'
p6612
aa(lp6613
S't_set/ZQC3.jpg'
p6614
aS'ZQC3'
p6615
aa(lp6616
S't_set/g5rf.jpg'
p6617
aS'g5rf'
p6618
aa(lp6619
S't_set/BSNA--926057972.jpg'
p6620
aS'BSNA'
p6621
aa(lp6622
S't_set/XPAW--590777109.jpg'
p6623
aS'XPAW'
p6624
aa(lp6625
S't_set/d4rf.jpg'
p6626
aS'd4rf'
p6627
aa(lp6628
S't_set/PD2R--1088419283.jpg'
p6629
aS'PD2R'
p6630
aa(lp6631
S't_set/E2PD--24237812.jpg'
p6632
aS'E2PD'
p6633
aa(lp6634
S't_set/nczq.jpg'
p6635
aS'nczq'
p6636
aa(lp6637
S't_set/f4te.jpg'
p6638
aS'f4te'
p6639
aa(lp6640
S't_set/SPDZ--750440419.jpg'
p6641
aS'SPDZ'
p6642
aa(lp6643
S't_set/WSE5--1162049331.jpg'
p6644
aS'WSE5'
p6645
aa(lp6646
S't_set/YVG7--680230905.jpg'
p6647
aS'YVG7'
p6648
aa(lp6649
S't_set/3SD4.jpg'
p6650
aS'3SD4'
p6651
aa(lp6652
S't_set/ujf3--689175995.jpg'
p6653
aS'ujf3'
p6654
aa(lp6655
S't_set/5RFC--449460537.jpg'
p6656
aS'5RFC'
p6657
aa(lp6658
S't_set/UJ7T.jpg'
p6659
aS'UJ7T'
p6660
aa(lp6661
S't_set/ZMHY.jpg'
p6662
aS'ZMHY'
p6663
aa(lp6664
S't_set/F7TP.jpg'
p6665
aS'F7TP'
p6666
aa(lp6667
S't_set/CTQB--1167939912.jpg'
p6668
aS'CTQB'
p6669
aa(lp6670
S't_set/B2PD--303106215.jpg'
p6671
aS'B2PD'
p6672
aa(lp6673
S't_set/GCZQ--699974083.jpg'
p6674
aS'GCZQ'
p6675
aa(lp6676
S't_set/9WSG--1209090970.jpg'
p6677
aS'9WSG'
p6678
aa(lp6679
S't_set/f3se.jpg'
p6680
aS'f3se'
p6681
aa(lp6682
S't_set/9ZMG--1185118840.jpg'
p6683
aS'9ZMG'
p6684
aa(lp6685
S't_set/YPJZ.jpg'
p6686
aS'YPJZ'
p6687
aa(lp6688
S't_set/KAWN.jpg'
p6689
aS'KAWN'
p6690
aa(lp6691
S't_set/xkaw--465663060.jpg'
p6692
aS'xkaw'
p6693
aa(lp6694
S't_set/NJZV--1159503854.jpg'
p6695
aS'NJZV'
p6696
aa(lp6697
S't_set/PDZQ.jpg'
p6698
aS'PDZQ'
p6699
aa(lp6700
S't_set/2RD4--1093165577.jpg'
p6701
aS'2RD4'
p6702
aa(lp6703
S't_set/pdaw.jpg'
p6704
aS'pdaw'
p6705
aa(lp6706
S't_set/4TEB--852086783.jpg'
p6707
aS'4TEB'
p6708
aa(lp6709
S't_set/CTQE--147448182.jpg'
p6710
aS'CTQE'
p6711
aa(lp6712
S't_set/vm8u.jpg'
p6713
aS'vm8u'
p6714
aa(lp6715
S't_set/XNAZ--90052379.jpg'
p6716
aS'XNAZ'
p6717
aa(lp6718
S't_set/5VG7.jpg'
p6719
aS'5VG7'
p6720
aa(lp6721
S't_set/FWTE.jpg'
p6722
aS'FWTE'
p6723
aa(lp6724
S't_set/kbxn--466371852.jpg'
p6725
aS'kbxn'
p6726
aa(lp6727
S't_set/evrf--536034483.jpg'
p6728
aS'evrf'
p6729
aa(lp6730
S't_set/axnh--590822721.jpg'
p6731
aS'axnh'
p6732
aa(lp6733
S't_set/PB2N.jpg'
p6734
aS'PB2N'
p6735
aa(lp6736
S't_set/5UFC.jpg'
p6737
aS'5UFC'
p6738
aa(lp6739
S't_set/SH5R--138949630.jpg'
p6740
aS'SH5R'
p6741
aa(lp6742
S't_set/G5RF--902549203.jpg'
p6743
aS'G5RF'
p6744
aa(lp6745
S't_set/b2pj--242043369.jpg'
p6746
aS'b2pj'
p6747
aa(lp6748
S't_set/DZRC--39494491.jpg'
p6749
aS'DZRC'
p6750
aa(lp6751
S't_set/HDUQ--1259842523.jpg'
p6752
aS'HDUQ'
p6753
aa(lp6754
S't_set/RD4Q--505583093.jpg'
p6755
aS'RD4Q'
p6756
aa(lp6757
S't_set/8UJF--950307.jpg'
p6758
aS'8UJF'
p6759
aa(lp6760
S't_set/M8UK.jpg'
p6761
aS'M8UK'
p6762
aa(lp6763
S't_set/qear.jpg'
p6764
aS'qear'
p6765
aa(lp6766
S't_set/fctp.jpg'
p6767
aS'fctp'
p6768
aa(lp6769
S't_set/YMGX.jpg'
p6770
aS'YMGX'
p6771
aa(lp6772
S't_set/zmhy.jpg'
p6773
aS'zmhy'
p6774
aa(lp6775
S't_set/7wje.jpg'
p6776
aS'7wje'
p6777
aa(lp6778
S't_set/awth--498967448.jpg'
p6779
aS'awth'
p6780
aa(lp6781
S't_set/UF6T--308368014.jpg'
p6782
aS'UF6T'
p6783
aa(lp6784
S't_set/qeas--915403756.jpg'
p6785
aS'qeas'
p6786
aa(lp6787
S't_set/E3SD.jpg'
p6788
aS'E3SD'
p6789
aa(lp6790
S't_set/BXNA--50814104.jpg'
p6791
aS'BXNA'
p6792
aa(lp6793
S't_set/J6WH.jpg'
p6794
aS'J6WH'
p6795
aa(lp6796
S't_set/yqbx.jpg'
p6797
aS'yqbx'
p6798
aa(lp6799
S't_set/KAWH--336100432.jpg'
p6800
aS'KAWH'
p6801
aa(lp6802
S't_set/XPAW--1277451370.jpg'
p6803
aS'XPAW'
p6804
aa(lp6805
S't_set/KAWS.jpg'
p6806
aS'KAWS'
p6807
aa(lp6808
S't_set/8UQF.jpg'
p6809
aS'8UQF'
p6810
aa(lp6811
S't_set/ARNC--483549754.jpg'
p6812
aS'ARNC'
p6813
aa(lp6814
S't_set/5SNC--1200542509.jpg'
p6815
aS'5SNC'
p6816
aa(lp6817
S't_set/g7uq.jpg'
p6818
aS'g7uq'
p6819
aa(lp6820
S't_set/8UKF--153070260.jpg'
p6821
aS'8UKF'
p6822
aa(lp6823
S't_set/GDUQ--275883342.jpg'
p6824
aS'GDUQ'
p6825
aa(lp6826
S't_set/uf6s.jpg'
p6827
aS'uf6s'
p6828
aa(lp6829
S't_set/GCZQ--53142065.jpg'
p6830
aS'GCZQ'
p6831
aa(lp6832
S't_set/6sgd.jpg'
p6833
aS'6sgd'
p6834
aa(lp6835
S't_set/9YKA--568520944.jpg'
p6836
aS'9YKA'
p6837
aa(lp6838
S't_set/PKAW--362780321.jpg'
p6839
aS'PKAW'
p6840
aa(lp6841
S't_set/6WH8.jpg'
p6842
aS'6WH8'
p6843
aa(lp6844
S't_set/D4RM--56001773.jpg'
p6845
aS'D4RM'
p6846
aa(lp6847
S't_set/9YKA.jpg'
p6848
aS'9YKA'
p6849
aa(lp6850
S't_set/QE2P--901008587.jpg'
p6851
aS'QE2P'
p6852
aa(lp6853
S't_set/2pjz--261022770.jpg'
p6854
aS'2pjz'
p6855
aa(lp6856
S't_set/KAWN--46359630.jpg'
p6857
aS'KAWN'
p6858
aa(lp6859
S't_set/fbsn--128798676.jpg'
p6860
aS'fbsn'
p6861
aa(lp6862
S't_set/earm.jpg'
p6863
aS'earm'
p6864
aa(lp6865
S't_set/SPDZ--478704324.jpg'
p6866
aS'SPDZ'
p6867
aa(lp6868
S't_set/JAWM--1179899538.jpg'
p6869
aS'JAWM'
p6870
aa(lp6871
S't_set/ujf3--241763932.jpg'
p6872
aS'ujf3'
p6873
aa(lp6874
S't_set/F3PE.jpg'
p6875
aS'F3PE'
p6876
aa(lp6877
S't_set/RMBY.jpg'
p6878
aS'RMBY'
p6879
aa(lp6880
S't_set/E3PD--4124374.jpg'
p6881
aS'E3PD'
p6882
aa(lp6883
S't_set/bxna--732027118.jpg'
p6884
aS'bxna'
p6885
aa(lp6886
S't_set/MBYP--1280406188.jpg'
p6887
aS'MBYP'
p6888
aa(lp6889
S't_set/NHYV.jpg'
p6890
aS'NHYV'
p6891
aa(lp6892
S't_set/b2nj--708999625.jpg'
p6893
aS'b2nj'
p6894
aa(lp6895
S't_set/mbyu.jpg'
p6896
aS'mbyu'
p6897
aa(lp6898
S't_set/DVRC.jpg'
p6899
aS'DVRC'
p6900
aa(lp6901
S't_set/BXUJ--1213314835.jpg'
p6902
aS'BXUJ'
p6903
aa(lp6904
S't_set/QKAX--394437391.jpg'
p6905
aS'QKAX'
p6906
aa(lp6907
S't_set/n9wm.jpg'
p6908
aS'n9wm'
p6909
aa(lp6910
S't_set/6VGD--1050050795.jpg'
p6911
aS'6VGD'
p6912
aa(lp6913
S't_set/DUQB--422803623.jpg'
p6914
aS'DUQB'
p6915
aa(lp6916
S't_set/XTF6.jpg'
p6917
aS'XTF6'
p6918
aa(lp6919
S't_set/G7UJ--359331490.jpg'
p6920
aS'G7UJ'
p6921
aa(lp6922
S't_set/B3PJ.jpg'
p6923
aS'B3PJ'
p6924
aa(lp6925
S't_set/PD2N.jpg'
p6926
aS'PD2N'
p6927
aa(lp6928
S't_set/7WH8--411428602.jpg'
p6929
aS'7WH8'
p6930
aa(lp6931
S't_set/QK8X--229971524.jpg'
p6932
aS'QK8X'
p6933
aa(lp6934
S't_set/KFWT--147529538.jpg'
p6935
aS'KFWT'
p6936
aa(lp6937
S't_set/SNAZ.jpg'
p6938
aS'SNAZ'
p6939
aa(lp6940
S't_set/ypjz.jpg'
p6941
aS'ypjz'
p6942
aa(lp6943
S't_set/XNJ6.jpg'
p6944
aS'XNJ6'
p6945
aa(lp6946
S't_set/SG5U.jpg'
p6947
aS'SG5U'
p6948
aa(lp6949
S't_set/DUQC--420105036.jpg'
p6950
aS'DUQC'
p6951
aa(lp6952
S't_set/2NCZ--669253319.jpg'
p6953
aS'2NCZ'
p6954
aa(lp6955
S't_set/QB2N.jpg'
p6956
aS'QB2N'
p6957
aa(lp6958
S't_set/XKFW--1285845169.jpg'
p6959
aS'XKFW'
p6960
aa(lp6961
S't_set/YPJA--1026071832.jpg'
p6962
aS'YPJA'
p6963
aa(lp6964
S't_set/UJ7T--334916507.jpg'
p6965
aS'UJ7T'
p6966
aa(lp6967
S't_set/vkf4.jpg'
p6968
aS'vkf4'
p6969
aa(lp6970
S't_set/rczq.jpg'
p6971
aS'rczq'
p6972
aa(lp6973
S't_set/kfxt--670041387.jpg'
p6974
aS'kfxt'
p6975
aa(lp6976
S't_set/XPAW.jpg'
p6977
aS'XPAW'
p6978
aa(lp6979
S't_set/HDVR.jpg'
p6980
aS'HDVR'
p6981
aa(lp6982
S't_set/WTH5--1139703607.jpg'
p6983
aS'WTH5'
p6984
aa(lp6985
S't_set/TPD2--1027892534.jpg'
p6986
aS'TPD2'
p6987
aa(lp6988
S't_set/asn9.jpg'
p6989
aS'asn9'
p6990
aa(lp6991
S't_set/MBXT--300845027.jpg'
p6992
aS'MBXT'
p6993
aa(lp6994
S't_set/PEAR.jpg'
p6995
aS'PEAR'
p6996
aa(lp6997
S't_set/tfbs--974327573.jpg'
p6998
aS'tfbs'
p6999
aa(lp7000
S't_set/TQE2.jpg'
p7001
aS'TQE2'
p7002
aa(lp7003
S't_set/6SNC.jpg'
p7004
aS'6SNC'
p7005
aa(lp7006
S't_set/h5sg--129227858.jpg'
p7007
aS'h5sg'
p7008
aa(lp7009
S't_set/DZRC--1251059835.jpg'
p7010
aS'DZRC'
p7011
aa(lp7012
S't_set/YUK7--1207132420.jpg'
p7013
aS'YUK7'
p7014
aa(lp7015
S't_set/M9VK.jpg'
p7016
aS'M9VK'
p7017
aa(lp7018
S't_set/BXUJ--461277977.jpg'
p7019
aS'BXUJ'
p7020
aa(lp7021
S't_set/MH5U--455941840.jpg'
p7022
aS'MH5U'
p7023
aa.