(dp0
S'merge_data/SGCT@1.jpg'
p1
S'SGCT'
p2
sS'merge_data/fbsn@1.jpg'
p3
S'fbsn'
p4
sS'merge_data/fwse@1.jpg'
p5
S'fwse'
p6
sS'merge_data/awn9@2.jpg'
p7
S'awn9'
p8
sS'merge_data/NCYU@1.jpg'
p9
S'NCYU'
p10
sS'merge_data/NHZV@1.jpg'
p11
S'NHZV'
p12
sS'merge_data/ypja@1.jpg'
p13
S'ypja'
p14
sS'merge_data/5SGC@5.jpg'
p15
S'5SGC'
p16
sS'merge_data/3pdA@1.jpg'
p17
S'3pdA'
p18
sS'merge_data/BXUJ@5.jpg'
p19
S'BXUJ'
p20
sS'merge_data/VM8U@1.jpg'
p21
S'VM8U'
p22
sS'merge_data/RF3Q@1.jpg'
p23
S'RF3Q'
p24
sS'merge_data/5RMC@2.jpg'
p25
S'5RMC'
p26
sS'merge_data/RF4Q@1.jpg'
p27
S'RF4Q'
p28
sS'merge_data/uf6s@1.jpg'
p29
S'uf6s'
p30
sS'merge_data/MGXU@2.jpg'
p31
S'MGXU'
p32
sS'merge_data/J9WS@1.jpg'
p33
S'J9WS'
p34
sS'merge_data/NCYU@2.jpg'
p35
S'NCYU'
p36
sS'merge_data/gdzq@1.jpg'
p37
S'gdzq'
p38
sS'merge_data/fctp@1.jpg'
p39
S'fctp'
p40
sS'merge_data/pa2n@1.jpg'
p41
S'pa2n'
p42
sS'merge_data/GDUQ@5.jpg'
p43
S'GDUQ'
p44
sS'merge_data/ZVK7@1.jpg'
p45
S'ZVK7'
p46
sS'merge_data/HDVR@4.jpg'
p47
S'HDVR'
p48
sS'merge_data/nazm@1.jpg'
p49
S'nazm'
p50
sS'merge_data/RNCY@3.jpg'
p51
S'RNCY'
p52
sS'merge_data/cyVK@1.jpg'
p53
S'cyVK'
p54
sS'merge_data/M8XK@1.jpg'
p55
S'M8XK'
p56
sS'merge_data/8XKF@4.jpg'
p57
S'8XKF'
p58
sS'merge_data/aZmc@1.jpg'
p59
S'aZmc'
p60
sS'merge_data/3se5@1.jpg'
p61
S'3se5'
p62
sS'merge_data/UQE2@1.jpg'
p63
S'UQE2'
p64
sS'merge_data/XUJ6@1.jpg'
p65
S'XUJ6'
p66
sS'merge_data/rn9y@1.jpg'
p67
S'rn9y'
p68
sS'merge_data/ymbx@2.jpg'
p69
S'ymbx'
p70
sS'merge_data/DAWM@2.jpg'
p71
S'DAWM'
p72
sS'merge_data/NAZM@4.jpg'
p73
S'NAZM'
p74
sS'merge_data/SG4R@1.jpg'
p75
S'SG4R'
p76
sS'merge_data/JZVM@1.jpg'
p77
S'JZVM'
p78
sS'merge_data/J7TH@2.jpg'
p79
S'J7TH'
p80
sS'merge_data/CYUJ@1.jpg'
p81
S'CYUJ'
p82
sS'merge_data/FXTE@2.jpg'
p83
S'FXTE'
p84
sS'merge_data/9WSG@1.jpg'
p85
S'9WSG'
p86
sS'merge_data/GXTF@1.jpg'
p87
S'GXTF'
p88
sS'merge_data/2pJz@1.jpg'
p89
S'2pJz'
p90
sS'merge_data/kGxT@1.jpg'
p91
S'kGxT'
p92
sS'merge_data/UFCT@1.jpg'
p93
S'UFCT'
p94
sS'merge_data/BXka@1.jpg'
p95
S'BXka'
p96
sS'merge_data/XPAZ@1.jpg'
p97
S'XPAZ'
p98
sS'merge_data/SG4U@2.jpg'
p99
S'SG4U'
p100
sS'merge_data/QF3S@1.jpg'
p101
S'QF3S'
p102
sS'merge_data/kfwt@1.jpg'
p103
S'kfwt'
p104
sS'merge_data/UFBT@2.jpg'
p105
S'UFBT'
p106
sS'merge_data/KAWN@3.jpg'
p107
S'KAWN'
p108
sS'merge_data/tj6v@1.jpg'
p109
S'tj6v'
p110
sS'merge_data/EBSN@4.jpg'
p111
S'EBSN'
p112
sS'merge_data/J6th@1.jpg'
p113
S'J6th'
p114
sS'merge_data/FBSP@1.jpg'
p115
S'FBSP'
p116
sS'merge_data/BXUJ@2.jpg'
p117
S'BXUJ'
p118
sS'merge_data/3pdz@2.jpg'
p119
S'3pdz'
p120
sS'merge_data/bsna@1.jpg'
p121
S'bsna'
p122
sS'merge_data/E2RC@5.jpg'
p123
S'E2RC'
p124
sS'merge_data/5ugc@1.jpg'
p125
S'5ugc'
p126
sS'merge_data/GXTF@7.jpg'
p127
S'GXTF'
p128
sS'merge_data/vkgx@1.jpg'
p129
S'vkgx'
p130
sS'merge_data/2NJZ@2.jpg'
p131
S'2NJZ'
p132
sS'merge_data/AWMH@3.jpg'
p133
S'AWMH'
p134
sS'merge_data/Ymbx@1.jpg'
p135
S'Ymbx'
p136
sS'merge_data/NCYP@2.jpg'
p137
S'NCYP'
p138
sS'merge_data/nczm@2.jpg'
p139
S'nczm'
p140
sS'merge_data/CYPK@3.jpg'
p141
S'CYPK'
p142
sS'merge_data/GCUQ@1.jpg'
p143
S'GCUQ'
p144
sS'merge_data/vrf4@1.jpg'
p145
S'vrf4'
p146
sS'merge_data/K8XJ@4.jpg'
p147
S'K8XJ'
p148
sS'merge_data/bxnh@2.jpg'
p149
S'bxnh'
p150
sS'merge_data/Pb2n@2.jpg'
p151
S'Pb2n'
p152
sS'merge_data/AXN9@6.jpg'
p153
S'AXN9'
p154
sS'merge_data/YKGX@2.jpg'
p155
S'YKGX'
p156
sS'merge_data/D2RC@4.jpg'
p157
S'D2RC'
p158
sS'merge_data/4qeb@1.jpg'
p159
S'4qeb'
p160
sS'merge_data/WJ9V@1.jpg'
p161
S'WJ9V'
p162
sS'merge_data/ZWM8@4.jpg'
p163
S'ZWM8'
p164
sS'merge_data/Zmby@1.jpg'
p165
S'Zmby'
p166
sS'merge_data/dArM@1.jpg'
p167
S'dArM'
p168
sS'merge_data/3sda@3.jpg'
p169
S'3sda'
p170
sS'merge_data/ymbx@1.jpg'
p171
S'ymbx'
p172
sS'merge_data/J6WH@3.jpg'
p173
S'J6WH'
p174
sS'merge_data/D4RF@1.jpg'
p175
S'D4RF'
p176
sS'merge_data/YQb2@1.jpg'
p177
S'YQb2'
p178
sS'merge_data/TPAZ@3.jpg'
p179
S'TPAZ'
p180
sS'merge_data/DZQK@1.jpg'
p181
S'DZQK'
p182
sS'merge_data/5RFC@5.jpg'
p183
S'5RFC'
p184
sS'merge_data/Wh8v@1.jpg'
p185
S'Wh8v'
p186
sS'merge_data/sgdu@1.jpg'
p187
S'sgdu'
p188
sS'merge_data/VRC4@1.jpg'
p189
S'VRC4'
p190
sS'merge_data/JZVK@1.jpg'
p191
S'JZVK'
p192
sS'merge_data/qkax@2.jpg'
p193
S'qkax'
p194
sS'merge_data/mbyu@1.jpg'
p195
S'mbyu'
p196
sS'merge_data/DZQC@5.jpg'
p197
S'DZQC'
p198
sS'merge_data/EBSN@2.jpg'
p199
S'EBSN'
p200
sS'merge_data/8UQE@1.jpg'
p201
S'8UQE'
p202
sS'merge_data/2NDZ@1.jpg'
p203
S'2NDZ'
p204
sS'merge_data/sdar@1.jpg'
p205
S'sdar'
p206
sS'merge_data/YPJZ@4.jpg'
p207
S'YPJZ'
p208
sS'merge_data/zmbx@1.jpg'
p209
S'zmbx'
p210
sS'merge_data/XJ9V@2.jpg'
p211
S'XJ9V'
p212
sS'merge_data/RGCY@1.jpg'
p213
S'RGCY'
p214
sS'merge_data/ujf3@2.jpg'
p215
S'ujf3'
p216
sS'merge_data/jfws@1.jpg'
p217
S'jfws'
p218
sS'merge_data/WN9Y@1.jpg'
p219
S'WN9Y'
p220
sS'merge_data/h9vk@1.jpg'
p221
S'h9vk'
p222
sS'merge_data/PDZW@1.jpg'
p223
S'PDZW'
p224
sS'merge_data/4TFB@1.jpg'
p225
S'4TFB'
p226
sS'merge_data/J6WH@4.jpg'
p227
S'J6WH'
p228
sS'merge_data/e2sd@2.jpg'
p229
S'e2sd'
p230
sS'merge_data/THDZ@1.jpg'
p231
S'THDZ'
p232
sS'merge_data/PDZN@1.jpg'
p233
S'PDZN'
p234
sS'merge_data/6SGC@1.jpg'
p235
S'6SGC'
p236
sS'merge_data/HE2R@1.jpg'
p237
S'HE2R'
p238
sS'merge_data/b2pj@4.jpg'
p239
S'b2pj'
p240
sS'merge_data/DUQC@2.jpg'
p241
S'DUQC'
p242
sS'merge_data/UJF3@1.jpg'
p243
S'UJF3'
p244
sS'merge_data/9YKG@2.jpg'
p245
S'9YKG'
p246
sS'merge_data/YQK7@1.jpg'
p247
S'YQK7'
p248
sS'merge_data/sNDZ@1.jpg'
p249
S'sNDZ'
p250
sS'merge_data/CYPK@1.jpg'
p251
S'CYPK'
p252
sS'merge_data/ZMBY@3.jpg'
p253
S'ZMBY'
p254
sS'merge_data/8UKF@3.jpg'
p255
S'8UKF'
p256
sS'merge_data/N9YK@2.jpg'
p257
S'N9YK'
p258
sS'merge_data/tpe2@1.jpg'
p259
S'tpe2'
p260
sS'merge_data/SDZR@2.jpg'
p261
S'SDZR'
p262
sS'merge_data/wsg5@2.jpg'
p263
S'wsg5'
p264
sS'merge_data/AWTH@1.jpg'
p265
S'AWTH'
p266
sS'merge_data/sgcz@3.jpg'
p267
S'sgcz'
p268
sS'merge_data/M8UK@2.jpg'
p269
S'M8UK'
p270
sS'merge_data/azmb@1.jpg'
p271
S'azmb'
p272
sS'merge_data/ebsn@2.jpg'
p273
S'ebsn'
p274
sS'merge_data/K7TJ@2.jpg'
p275
S'K7TJ'
p276
sS'merge_data/G7TQ@4.jpg'
p277
S'G7TQ'
p278
sS'merge_data/2RD4@4.jpg'
p279
S'2RD4'
p280
sS'merge_data/4TF6@2.jpg'
p281
S'4TF6'
p282
sS'merge_data/vhdu@1.jpg'
p283
S'vhdu'
p284
sS'merge_data/GDZQ@3.jpg'
p285
S'GDZQ'
p286
sS'merge_data/4QEB@1.jpg'
p287
S'4QEB'
p288
sS'merge_data/kaxn@5.jpg'
p289
S'kaxn'
p290
sS'merge_data/ZQK7@1.jpg'
p291
S'ZQK7'
p292
sS'merge_data/DVRC@2.jpg'
p293
S'DVRC'
p294
sS'merge_data/HDUQ@1.jpg'
p295
S'HDUQ'
p296
sS'merge_data/VKG4@4.jpg'
p297
S'VKG4'
p298
sS'merge_data/qebs@1.jpg'
p299
S'qebs'
p300
sS'merge_data/ARMC@2.jpg'
p301
S'ARMC'
p302
sS'merge_data/ZMBX@1.jpg'
p303
S'ZMBX'
p304
sS'merge_data/sd4r@2.jpg'
p305
S'sd4r'
p306
sS'merge_data/AWSH@2.jpg'
p307
S'AWSH'
p308
sS'merge_data/d4rf@1.jpg'
p309
S'd4rf'
p310
sS'merge_data/ypKA@1.jpg'
p311
S'ypKA'
p312
sS'merge_data/6THD@1.jpg'
p313
S'6THD'
p314
sS'merge_data/7WHE@1.jpg'
p315
S'7WHE'
p316
sS'merge_data/2RD4@3.jpg'
p317
S'2RD4'
p318
sS'merge_data/ujev@1.jpg'
p319
S'ujev'
p320
sS'merge_data/G7TQ@3.jpg'
p321
S'G7TQ'
p322
sS'merge_data/qeax@2.jpg'
p323
S'qeax'
p324
sS'merge_data/xpjz@1.jpg'
p325
S'xpjz'
p326
sS'merge_data/TF6S@1.jpg'
p327
S'TF6S'
p328
sS'merge_data/FWSE@2.jpg'
p329
S'FWSE'
p330
sS'merge_data/SG5R@3.jpg'
p331
S'SG5R'
p332
sS'merge_data/mbyp@2.jpg'
p333
S'mbyp'
p334
sS'merge_data/PAXN@2.jpg'
p335
S'PAXN'
p336
sS'merge_data/SH5R@2.jpg'
p337
S'SH5R'
p338
sS'merge_data/8VKF@6.jpg'
p339
S'8VKF'
p340
sS'merge_data/E5RG@1.jpg'
p341
S'E5RG'
p342
sS'merge_data/8YKF@1.jpg'
p343
S'8YKF'
p344
sS'merge_data/HYVK@2.jpg'
p345
S'HYVK'
p346
sS'merge_data/bspa@1.jpg'
p347
S'bspa'
p348
sS'merge_data/ZQCY@1.jpg'
p349
S'ZQCY'
p350
sS'merge_data/ypk7@2.jpg'
p351
S'ypk7'
p352
sS'merge_data/xuj6@1.jpg'
p353
S'xuj6'
p354
sS'merge_data/N9WM@1.jpg'
p355
S'N9WM'
p356
sS'merge_data/SGCZ@3.jpg'
p357
S'SGCZ'
p358
sS'merge_data/PB2N@10.jpg'
p359
S'PB2N'
p360
sS'merge_data/WM8V@2.jpg'
p361
S'WM8V'
p362
sS'merge_data/TPD2@2.jpg'
p363
S'TPD2'
p364
sS'merge_data/E5RG@2.jpg'
p365
S'E5RG'
p366
sS'merge_data/9vkg@1.jpg'
p367
S'9vkg'
p368
sS'merge_data/KF3T@1.jpg'
p369
S'KF3T'
p370
sS'merge_data/DZRC@2.jpg'
p371
S'DZRC'
p372
sS'merge_data/awth@2.jpg'
p373
S'awth'
p374
sS'merge_data/mHyU@1.jpg'
p375
S'mHyU'
p376
sS'merge_data/8UJF@3.jpg'
p377
S'8UJF'
p378
sS'merge_data/YKGX@1.jpg'
p379
S'YKGX'
p380
sS'merge_data/jzwm@1.jpg'
p381
S'jzwm'
p382
sS'merge_data/TH5S@3.jpg'
p383
S'TH5S'
p384
sS'merge_data/KGXT@6.jpg'
p385
S'KGXT'
p386
sS'merge_data/nhyv@2.jpg'
p387
S'nhyv'
p388
sS'merge_data/E5SG@1.jpg'
p389
S'E5SG'
p390
sS'merge_data/uj6v@1.jpg'
p391
S'uj6v'
p392
sS'merge_data/qmbx@1.jpg'
p393
S'qmbx'
p394
sS'merge_data/KAWM@7.jpg'
p395
S'KAWM'
p396
sS'merge_data/vRG4@1.jpg'
p397
S'vRG4'
p398
sS'merge_data/PEAR@2.jpg'
p399
S'PEAR'
p400
sS'merge_data/TPD2@4.jpg'
p401
S'TPD2'
p402
sS'merge_data/zvm8@1.jpg'
p403
S'zvm8'
p404
sS'merge_data/WHEV@2.jpg'
p405
S'WHEV'
p406
sS'merge_data/THE2@1.jpg'
p407
S'THE2'
p408
sS'merge_data/SEAR@1.jpg'
p409
S'SEAR'
p410
sS'merge_data/evrf@1.jpg'
p411
S'evrf'
p412
sS'merge_data/sd5r@1.jpg'
p413
S'sd5r'
p414
sS'merge_data/4UF6@3.jpg'
p415
S'4UF6'
p416
sS'merge_data/ZWM8@1.jpg'
p417
S'ZWM8'
p418
sS'merge_data/9VRG@2.jpg'
p419
S'9VRG'
p420
sS'merge_data/wmH5@2.jpg'
p421
S'wmH5'
p422
sS'merge_data/VG7U@1.jpg'
p423
S'VG7U'
p424
sS'merge_data/xtf6@2.jpg'
p425
S'xtf6'
p426
sS'merge_data/rc3p@1.jpg'
p427
S'rc3p'
p428
sS'merge_data/DZMC@1.jpg'
p429
S'DZMC'
p430
sS'merge_data/D5RF@2.jpg'
p431
S'D5RF'
p432
sS'merge_data/duqc@1.jpg'
p433
S'duqc'
p434
sS'merge_data/spdz@1.jpg'
p435
S'spdz'
p436
sS'merge_data/e5rn@1.jpg'
p437
S'e5rn'
p438
sS'merge_data/uf6t@3.jpg'
p439
S'uf6t'
p440
sS'merge_data/th6v@1.jpg'
p441
S'th6v'
p442
sS'merge_data/KFXT@3.jpg'
p443
S'KFXT'
p444
sS'merge_data/RCZQ@2.jpg'
p445
S'RCZQ'
p446
sS'merge_data/DARM@3.jpg'
p447
S'DARM'
p448
sS'merge_data/VK8X@3.jpg'
p449
S'VK8X'
p450
sS'merge_data/N9YM@3.jpg'
p451
S'N9YM'
p452
sS'merge_data/axnh@1.jpg'
p453
S'axnh'
p454
sS'merge_data/SGCZ@4.jpg'
p455
S'SGCZ'
p456
sS'merge_data/B2PJ@2.jpg'
p457
S'B2PJ'
p458
sS'merge_data/vrd4@2.jpg'
p459
S'vrd4'
p460
sS'merge_data/FBYP@2.jpg'
p461
S'FBYP'
p462
sS'merge_data/sh5r@1.jpg'
p463
S'sh5r'
p464
sS'merge_data/DZVK@1.jpg'
p465
S'DZVK'
p466
sS'merge_data/VSG4@7.jpg'
p467
S'VSG4'
p468
sS'merge_data/vk8x@1.jpg'
p469
S'vk8x'
p470
sS'merge_data/G4UF@1.jpg'
p471
S'G4UF'
p472
sS'merge_data/MH5U@1.jpg'
p473
S'MH5U'
p474
sS'merge_data/5SGC@1.jpg'
p475
S'5SGC'
p476
sS'merge_data/Se5r@1.jpg'
p477
S'Se5r'
p478
sS'merge_data/uj6t@1.jpg'
p479
S'uj6t'
p480
sS'merge_data/7tPE@1.jpg'
p481
S'7tPE'
p482
sS'merge_data/9ZMG@1.jpg'
p483
S'9ZMG'
p484
sS'merge_data/czmb@1.jpg'
p485
S'czmb'
p486
sS'merge_data/RD4Q@6.jpg'
p487
S'RD4Q'
p488
sS'merge_data/PEAR@1.jpg'
p489
S'PEAR'
p490
sS'merge_data/KBXT@1.jpg'
p491
S'KBXT'
p492
sS'merge_data/ZWM8@3.jpg'
p493
S'ZWM8'
p494
sS'merge_data/j7th@1.jpg'
p495
S'j7th'
p496
sS'merge_data/rMBY@1.jpg'
p497
S'rMBY'
p498
sS'merge_data/wn9y@1.jpg'
p499
S'wn9y'
p500
sS'merge_data/SGDU@1.jpg'
p501
S'SGDU'
p502
sS'merge_data/DAWM@3.jpg'
p503
S'DAWM'
p504
sS'merge_data/zqmb@1.jpg'
p505
S'zqmb'
p506
sS'merge_data/VSG4@6.jpg'
p507
S'VSG4'
p508
sS'merge_data/2RCZ@2.jpg'
p509
S'2RCZ'
p510
sS'merge_data/ypjz@1.jpg'
p511
S'ypjz'
p512
sS'merge_data/F6SP@2.jpg'
p513
S'F6SP'
p514
sS'merge_data/HYUG@1.jpg'
p515
S'HYUG'
p516
sS'merge_data/PDZV@1.jpg'
p517
S'PDZV'
p518
sS'merge_data/yug7@1.jpg'
p519
S'yug7'
p520
sS'merge_data/KAXT@1.jpg'
p521
S'KAXT'
p522
sS'merge_data/5rNC@2.jpg'
p523
S'5rNC'
p524
sS'merge_data/sgdz@1.jpg'
p525
S'sgdz'
p526
sS'merge_data/4teb@2.jpg'
p527
S'4teb'
p528
sS'merge_data/gDZQ@1.jpg'
p529
S'gDZQ'
p530
sS'merge_data/FWSE@1.jpg'
p531
S'FWSE'
p532
sS'merge_data/VKFX@1.jpg'
p533
S'VKFX'
p534
sS'merge_data/mgyu@1.jpg'
p535
S'mgyu'
p536
sS'merge_data/rfcy@1.jpg'
p537
S'rfcy'
p538
sS'merge_data/TFBS@2.jpg'
p539
S'TFBS'
p540
sS'merge_data/zwm8@1.jpg'
p541
S'zwm8'
p542
sS'merge_data/5RFB@1.jpg'
p543
S'5RFB'
p544
sS'merge_data/rmby@1.jpg'
p545
S'rmby'
p546
sS'merge_data/7WHD@1.jpg'
p547
S'7WHD'
p548
sS'merge_data/AWM9@2.jpg'
p549
S'AWM9'
p550
sS'merge_data/NCYM@2.jpg'
p551
S'NCYM'
p552
sS'merge_data/PAZM@1.jpg'
p553
S'PAZM'
p554
sS'merge_data/HDUR@5.jpg'
p555
S'HDUR'
p556
sS'merge_data/je2s@1.jpg'
p557
S'je2s'
p558
sS'merge_data/8URF@1.jpg'
p559
S'8URF'
p560
sS'merge_data/ypb2@1.jpg'
p561
S'ypb2'
p562
sS'merge_data/E2RC@2.jpg'
p563
S'E2RC'
p564
sS'merge_data/AWj9@1.jpg'
p565
S'AWj9'
p566
sS'merge_data/NAZM@5.jpg'
p567
S'NAZM'
p568
sS'merge_data/QE2P@2.jpg'
p569
S'QE2P'
p570
sS'merge_data/CZQB@1.jpg'
p571
S'CZQB'
p572
sS'merge_data/rgCY@1.jpg'
p573
S'rgCY'
p574
sS'merge_data/RF3S@1.jpg'
p575
S'RF3S'
p576
sS'merge_data/yqk7@2.jpg'
p577
S'yqk7'
p578
sS'merge_data/g7tj@1.jpg'
p579
S'g7tj'
p580
sS'merge_data/f4te@1.jpg'
p581
S'f4te'
p582
sS'merge_data/6Vh8@1.jpg'
p583
S'6Vh8'
p584
sS'merge_data/xkaw@2.jpg'
p585
S'xkaw'
p586
sS'merge_data/Xj9w@1.jpg'
p587
S'Xj9w'
p588
sS'merge_data/th6s@1.jpg'
p589
S'th6s'
p590
sS'merge_data/G4QF@1.jpg'
p591
S'G4QF'
p592
sS'merge_data/ASN9@1.jpg'
p593
S'ASN9'
p594
sS'merge_data/bspd@2.jpg'
p595
S'bspd'
p596
sS'merge_data/5SNC@1.jpg'
p597
S'5SNC'
p598
sS'merge_data/KGXT@3.jpg'
p599
S'KGXT'
p600
sS'merge_data/AXN9@2.jpg'
p601
S'AXN9'
p602
sS'merge_data/E5RF@1.jpg'
p603
S'E5RF'
p604
sS'merge_data/WSG5@1.jpg'
p605
S'WSG5'
p606
sS'merge_data/2NJZ@5.jpg'
p607
S'2NJZ'
p608
sS'merge_data/8urf@1.jpg'
p609
S'8urf'
p610
sS'merge_data/RCZQ@3.jpg'
p611
S'RCZQ'
p612
sS'merge_data/BYUJ@2.jpg'
p613
S'BYUJ'
p614
sS'merge_data/rg4q@1.jpg'
p615
S'rg4q'
p616
sS'merge_data/MHYU@1.jpg'
p617
S'MHYU'
p618
sS'merge_data/4QMB@2.jpg'
p619
S'4QMB'
p620
sS'merge_data/czqk@1.jpg'
p621
S'czqk'
p622
sS'merge_data/4RFB@1.jpg'
p623
S'4RFB'
p624
sS'merge_data/ZMCY@3.jpg'
p625
S'ZMCY'
p626
sS'merge_data/3TEA@1.jpg'
p627
S'3TEA'
p628
sS'merge_data/3sd5@1.jpg'
p629
S'3sd5'
p630
sS'merge_data/rmby@2.jpg'
p631
S'rmby'
p632
sS'merge_data/AXN9@5.jpg'
p633
S'AXN9'
p634
sS'merge_data/6SHD@1.jpg'
p635
S'6SHD'
p636
sS'merge_data/NH5U@1.jpg'
p637
S'NH5U'
p638
sS'merge_data/EARN@4.jpg'
p639
S'EARN'
p640
sS'merge_data/axnh@2.jpg'
p641
S'axnh'
p642
sS'merge_data/MBXP@3.jpg'
p643
S'MBXP'
p644
sS'merge_data/XTF6@2.jpg'
p645
S'XTF6'
p646
sS'merge_data/fxth@1.jpg'
p647
S'fxth'
p648
sS'merge_data/J6VH@1.jpg'
p649
S'J6VH'
p650
sS'merge_data/WMH5@1.jpg'
p651
S'WMH5'
p652
sS'merge_data/N9ZM@1.jpg'
p653
S'N9ZM'
p654
sS'merge_data/FXTE@1.jpg'
p655
S'FXTE'
p656
sS'merge_data/ugct@1.jpg'
p657
S'ugct'
p658
sS'merge_data/AWMG@2.jpg'
p659
S'AWMG'
p660
sS'merge_data/pb2n@1.jpg'
p661
S'pb2n'
p662
sS'merge_data/G5Uf@1.jpg'
p663
S'G5Uf'
p664
sS'merge_data/4rfb@1.jpg'
p665
S'4rfb'
p666
sS'merge_data/vk7u@3.jpg'
p667
S'vk7u'
p668
sS'merge_data/je3s@1.jpg'
p669
S'je3s'
p670
sS'merge_data/DUQE@1.jpg'
p671
S'DUQE'
p672
sS'merge_data/YUJ7@4.jpg'
p673
S'YUJ7'
p674
sS'merge_data/3QKA@1.jpg'
p675
S'3QKA'
p676
sS'merge_data/2RD4@2.jpg'
p677
S'2RD4'
p678
sS'merge_data/KAWM@3.jpg'
p679
S'KAWM'
p680
sS'merge_data/qeax@1.jpg'
p681
S'qeax'
p682
sS'merge_data/E3PD@1.jpg'
p683
S'E3PD'
p684
sS'merge_data/jEvS@1.jpg'
p685
S'jEvS'
p686
sS'merge_data/RF4T@3.jpg'
p687
S'RF4T'
p688
sS'merge_data/RFCY@2.jpg'
p689
S'RFCY'
p690
sS'merge_data/vSG4@1.jpg'
p691
S'vSG4'
p692
sS'merge_data/QKAX@1.jpg'
p693
S'QKAX'
p694
sS'merge_data/9YmG@1.jpg'
p695
S'9YmG'
p696
sS'merge_data/sear@1.jpg'
p697
S'sear'
p698
sS'merge_data/DZQM@4.jpg'
p699
S'DZQM'
p700
sS'merge_data/d2nc@1.jpg'
p701
S'd2nc'
p702
sS'merge_data/YPK7@2.jpg'
p703
S'YPK7'
p704
sS'merge_data/SD4R@7.jpg'
p705
S'SD4R'
p706
sS'merge_data/UJ7W@2.jpg'
p707
S'UJ7W'
p708
sS'merge_data/XPAW@1.jpg'
p709
S'XPAW'
p710
sS'merge_data/mbxn@1.jpg'
p711
S'mbxn'
p712
sS'merge_data/VSD4@1.jpg'
p713
S'VSD4'
p714
sS'merge_data/UKFW@2.jpg'
p715
S'UKFW'
p716
sS'merge_data/TH6S@1.jpg'
p717
S'TH6S'
p718
sS'merge_data/xpaw@1.jpg'
p719
S'xpaw'
p720
sS'merge_data/f3qe@2.jpg'
p721
S'f3qe'
p722
sS'merge_data/awnh@1.jpg'
p723
S'awnh'
p724
sS'merge_data/dAWM@1.jpg'
p725
S'dAWM'
p726
sS'merge_data/RF4T@2.jpg'
p727
S'RF4T'
p728
sS'merge_data/arnc@1.jpg'
p729
S'arnc'
p730
sS'merge_data/D5RF@1.jpg'
p731
S'D5RF'
p732
sS'merge_data/ug7t@1.jpg'
p733
S'ug7t'
p734
sS'merge_data/HDVR@2.jpg'
p735
S'HDVR'
p736
sS'merge_data/h8uR@1.jpg'
p737
S'h8uR'
p738
sS'merge_data/8vkF@1.jpg'
p739
S'8vkF'
p740
sS'merge_data/axth@1.jpg'
p741
S'axth'
p742
sS'merge_data/7XJ9@1.jpg'
p743
S'7XJ9'
p744
sS'merge_data/H6SG@2.jpg'
p745
S'H6SG'
p746
sS'merge_data/evrg@1.jpg'
p747
S'evrg'
p748
sS'merge_data/E2RD@3.jpg'
p749
S'E2RD'
p750
sS'merge_data/WMGY@1.jpg'
p751
S'WMGY'
p752
sS'merge_data/vgdu@2.jpg'
p753
S'vgdu'
p754
sS'merge_data/qe2p@2.jpg'
p755
S'qe2p'
p756
sS'merge_data/5VG7@1.jpg'
p757
S'5VG7'
p758
sS'merge_data/tQE2@1.jpg'
p759
S'tQE2'
p760
sS'merge_data/wh9v@1.jpg'
p761
S'wh9v'
p762
sS'merge_data/4RMB@1.jpg'
p763
S'4RMB'
p764
sS'merge_data/nczV@2.jpg'
p765
S'nczV'
p766
sS'merge_data/yV97@1.jpg'
p767
S'yV97'
p768
sS'merge_data/PAZN@3.jpg'
p769
S'PAZN'
p770
sS'merge_data/G7TH@1.jpg'
p771
S'G7TH'
p772
sS'merge_data/g4uf@1.jpg'
p773
S'g4uf'
p774
sS'merge_data/YUG7@2.jpg'
p775
S'YUG7'
p776
sS'merge_data/ARMB@1.jpg'
p777
S'ARMB'
p778
sS'merge_data/RD4Q@1.jpg'
p779
S'RD4Q'
p780
sS'merge_data/PKAW@2.jpg'
p781
S'PKAW'
p782
sS'merge_data/5sgc@2.jpg'
p783
S'5sgc'
p784
sS'merge_data/tpa2@3.jpg'
p785
S'tpa2'
p786
sS'merge_data/KAWN@1.jpg'
p787
S'KAWN'
p788
sS'merge_data/PKAW@4.jpg'
p789
S'PKAW'
p790
sS'merge_data/NCZQ@4.jpg'
p791
S'NCZQ'
p792
sS'merge_data/EVRF@2.jpg'
p793
S'EVRF'
p794
sS'merge_data/5RFC@1.jpg'
p795
S'5RFC'
p796
sS'merge_data/kfwt@3.jpg'
p797
S'kfwt'
p798
sS'merge_data/VM8X@1.jpg'
p799
S'VM8X'
p800
sS'merge_data/uf6t@4.jpg'
p801
S'uf6t'
p802
sS'merge_data/3PEA@4.jpg'
p803
S'3PEA'
p804
sS'merge_data/XPAW@4.jpg'
p805
S'XPAW'
p806
sS'merge_data/MH5U@2.jpg'
p807
S'MH5U'
p808
sS'merge_data/ykax@2.jpg'
p809
S'ykax'
p810
sS'merge_data/qe2s@1.jpg'
p811
S'qe2s'
p812
sS'merge_data/CZVK@1.jpg'
p813
S'CZVK'
p814
sS'merge_data/N9WM@2.jpg'
p815
S'N9WM'
p816
sS'merge_data/b3pj@1.jpg'
p817
S'b3pj'
p818
sS'merge_data/UQE3@1.jpg'
p819
S'UQE3'
p820
sS'merge_data/5rmc@1.jpg'
p821
S'5rmc'
p822
sS'merge_data/2PJZ@3.jpg'
p823
S'2PJZ'
p824
sS'merge_data/3PDA@6.jpg'
p825
S'3PDA'
p826
sS'merge_data/EVRD@6.jpg'
p827
S'EVRD'
p828
sS'merge_data/E5SN@1.jpg'
p829
S'E5SN'
p830
sS'merge_data/9VRG@1.jpg'
p831
S'9VRG'
p832
sS'merge_data/GDZQ@7.jpg'
p833
S'GDZQ'
p834
sS'merge_data/PDZW@4.jpg'
p835
S'PDZW'
p836
sS'merge_data/J9VS@1.jpg'
p837
S'J9VS'
p838
sS'merge_data/4UF6@1.jpg'
p839
S'4UF6'
p840
sS'merge_data/HDVR@1.jpg'
p841
S'HDVR'
p842
sS'merge_data/KAWJ@2.jpg'
p843
S'KAWJ'
p844
sS'merge_data/fBXP@1.jpg'
p845
S'fBXP'
p846
sS'merge_data/VSG4@4.jpg'
p847
S'VSG4'
p848
sS'merge_data/GDUQ@6.jpg'
p849
S'GDUQ'
p850
sS'merge_data/D2RC@1.jpg'
p851
S'D2RC'
p852
sS'merge_data/gxth@2.jpg'
p853
S'gxth'
p854
sS'merge_data/K7Wj@1.jpg'
p855
S'K7Wj'
p856
sS'merge_data/QF3P@2.jpg'
p857
S'QF3P'
p858
sS'merge_data/WM8v@1.jpg'
p859
S'WM8v'
p860
sS'merge_data/DZRC@3.jpg'
p861
S'DZRC'
p862
sS'merge_data/K7TJ@1.jpg'
p863
S'K7TJ'
p864
sS'merge_data/AXNH@6.jpg'
p865
S'AXNH'
p866
sS'merge_data/JZVH@1.jpg'
p867
S'JZVH'
p868
sS'merge_data/Xkaw@2.jpg'
p869
S'Xkaw'
p870
sS'merge_data/YUK7@4.jpg'
p871
S'YUK7'
p872
sS'merge_data/4TEB@1.jpg'
p873
S'4TEB'
p874
sS'merge_data/shdz@1.jpg'
p875
S'shdz'
p876
sS'merge_data/5UGC@1.jpg'
p877
S'5UGC'
p878
sS'merge_data/ctqb@1.jpg'
p879
S'ctqb'
p880
sS'merge_data/xpJ6@2.jpg'
p881
S'xpJ6'
p882
sS'merge_data/WJEV@3.jpg'
p883
S'WJEV'
p884
sS'merge_data/wmgx@1.jpg'
p885
S'wmgx'
p886
sS'merge_data/SNCZ@1.jpg'
p887
S'SNCZ'
p888
sS'merge_data/YPKA@1.jpg'
p889
S'YPKA'
p890
sS'merge_data/j9vk@1.jpg'
p891
S'j9vk'
p892
sS'merge_data/3SeA@2.jpg'
p893
S'3SeA'
p894
sS'merge_data/WhDv@1.jpg'
p895
S'WhDv'
p896
sS'merge_data/BXKA@2.jpg'
p897
S'BXKA'
p898
sS'merge_data/vg8u@1.jpg'
p899
S'vg8u'
p900
sS'merge_data/UJ7T@2.jpg'
p901
S'UJ7T'
p902
sS'merge_data/HYUG@2.jpg'
p903
S'HYUG'
p904
sS'merge_data/SG5U@6.jpg'
p905
S'SG5U'
p906
sS'merge_data/SGDU@3.jpg'
p907
S'SGDU'
p908
sS'merge_data/EVSG@2.jpg'
p909
S'EVSG'
p910
sS'merge_data/qb2p@1.jpg'
p911
S'qb2p'
p912
sS'merge_data/JZWH@3.jpg'
p913
S'JZWH'
p914
sS'merge_data/WNH5@1.jpg'
p915
S'WNH5'
p916
sS'merge_data/C4QK@1.jpg'
p917
S'C4QK'
p918
sS'merge_data/awn9@1.jpg'
p919
S'awn9'
p920
sS'merge_data/2ncz@3.jpg'
p921
S'2ncz'
p922
sS'merge_data/8UJF@2.jpg'
p923
S'8UJF'
p924
sS'merge_data/9wmg@1.jpg'
p925
S'9wmg'
p926
sS'merge_data/VK7X@2.jpg'
p927
S'VK7X'
p928
sS'merge_data/GXTJ@1.jpg'
p929
S'GXTJ'
p930
sS'merge_data/aZmH@1.jpg'
p931
S'aZmH'
p932
sS'merge_data/QC3P@1.jpg'
p933
S'QC3P'
p934
sS'merge_data/wth5@2.jpg'
p935
S'wth5'
p936
sS'merge_data/YVK7@4.jpg'
p937
S'YVK7'
p938
sS'merge_data/vrc4@1.jpg'
p939
S'vrc4'
p940
sS'merge_data/UJE2@1.jpg'
p941
S'UJE2'
p942
sS'merge_data/QEAX@2.jpg'
p943
S'QEAX'
p944
sS'merge_data/H5UG@1.jpg'
p945
S'H5UG'
p946
sS'merge_data/durc@1.jpg'
p947
S'durc'
p948
sS'merge_data/XNAW@4.jpg'
p949
S'XNAW'
p950
sS'merge_data/8VKF@2.jpg'
p951
S'8VKF'
p952
sS'merge_data/ujf3@1.jpg'
p953
S'ujf3'
p954
sS'merge_data/VGCU@1.jpg'
p955
S'VGCU'
p956
sS'merge_data/VKFW@1.jpg'
p957
S'VKFW'
p958
sS'merge_data/GXTF@6.jpg'
p959
S'GXTF'
p960
sS'merge_data/bspd@1.jpg'
p961
S'bspd'
p962
sS'merge_data/8XKA@1.jpg'
p963
S'8XKA'
p964
sS'merge_data/SNCZ@2.jpg'
p965
S'SNCZ'
p966
sS'merge_data/7wje@2.jpg'
p967
S'7wje'
p968
sS'merge_data/rgcy@1.jpg'
p969
S'rgcy'
p970
sS'merge_data/GYUF@1.jpg'
p971
S'GYUF'
p972
sS'merge_data/QK8X@2.jpg'
p973
S'QK8X'
p974
sS'merge_data/yuk7@1.jpg'
p975
S'yuk7'
p976
sS'merge_data/TH6V@2.jpg'
p977
S'TH6V'
p978
sS'merge_data/h8vR@1.jpg'
p979
S'h8vR'
p980
sS'merge_data/ZWM8@2.jpg'
p981
S'ZWM8'
p982
sS'merge_data/E2RD@7.jpg'
p983
S'E2RD'
p984
sS'merge_data/BSND@1.jpg'
p985
S'BSND'
p986
sS'merge_data/tpd2@1.jpg'
p987
S'tpd2'
p988
sS'merge_data/TEAS@1.jpg'
p989
S'TEAS'
p990
sS'merge_data/MBXU@1.jpg'
p991
S'MBXU'
p992
sS'merge_data/CtPb@1.jpg'
p993
S'CtPb'
p994
sS'merge_data/qe2p@1.jpg'
p995
S'qe2p'
p996
sS'merge_data/GXUF@1.jpg'
p997
S'GXUF'
p998
sS'merge_data/EVSG@1.jpg'
p999
S'EVSG'
p1000
sS'merge_data/6VGD@2.jpg'
p1001
S'6VGD'
p1002
sS'merge_data/SPDZ@6.jpg'
p1003
S'SPDZ'
p1004
sS'merge_data/PBXN@1.jpg'
p1005
S'PBXN'
p1006
sS'merge_data/QM8X@2.jpg'
p1007
S'QM8X'
p1008
sS'merge_data/UJ7T@1.jpg'
p1009
S'UJ7T'
p1010
sS'merge_data/qe3s@2.jpg'
p1011
S'qe3s'
p1012
sS'merge_data/k7wj@1.jpg'
p1013
S'k7wj'
p1014
sS'merge_data/J6VH@2.jpg'
p1015
S'J6VH'
p1016
sS'merge_data/YUF7@2.jpg'
p1017
S'YUF7'
p1018
sS'merge_data/RN9Y@1.jpg'
p1019
S'RN9Y'
p1020
sS'merge_data/N9vm@1.jpg'
p1021
S'N9vm'
p1022
sS'merge_data/5UFC@1.jpg'
p1023
S'5UFC'
p1024
sS'merge_data/dzrm@2.jpg'
p1025
S'dzrm'
p1026
sS'merge_data/ZQKA@1.jpg'
p1027
S'ZQKA'
p1028
sS'merge_data/9Ymb@1.jpg'
p1029
S'9Ymb'
p1030
sS'merge_data/WJ9V@3.jpg'
p1031
S'WJ9V'
p1032
sS'merge_data/XNAZ@2.jpg'
p1033
S'XNAZ'
p1034
sS'merge_data/g4qf@1.jpg'
p1035
S'g4qf'
p1036
sS'merge_data/UQE3@2.jpg'
p1037
S'UQE3'
p1038
sS'merge_data/ncyp@2.jpg'
p1039
S'ncyp'
p1040
sS'merge_data/9WMG@1.jpg'
p1041
S'9WMG'
p1042
sS'merge_data/K8UJ@4.jpg'
p1043
S'K8UJ'
p1044
sS'merge_data/CYPK@2.jpg'
p1045
S'CYPK'
p1046
sS'merge_data/2NDZ@2.jpg'
p1047
S'2NDZ'
p1048
sS'merge_data/UJ6T@1.jpg'
p1049
S'UJ6T'
p1050
sS'merge_data/WSD4@1.jpg'
p1051
S'WSD4'
p1052
sS'merge_data/5snc@1.jpg'
p1053
S'5snc'
p1054
sS'merge_data/AWJ9@2.jpg'
p1055
S'AWJ9'
p1056
sS'merge_data/M8VK@1.jpg'
p1057
S'M8VK'
p1058
sS'merge_data/XNH6@1.jpg'
p1059
S'XNH6'
p1060
sS'merge_data/mg4u@1.jpg'
p1061
S'mg4u'
p1062
sS'merge_data/6Vg7@1.jpg'
p1063
S'6Vg7'
p1064
sS'merge_data/XNJZ@2.jpg'
p1065
S'XNJZ'
p1066
sS'merge_data/HYUG@4.jpg'
p1067
S'HYUG'
p1068
sS'merge_data/sg5r@2.jpg'
p1069
S'sg5r'
p1070
sS'merge_data/ZQMB@2.jpg'
p1071
S'ZQMB'
p1072
sS'merge_data/VK8X@2.jpg'
p1073
S'VK8X'
p1074
sS'merge_data/ARMC@1.jpg'
p1075
S'ARMC'
p1076
sS'merge_data/MCYK@1.jpg'
p1077
S'MCYK'
p1078
sS'merge_data/DZWM@1.jpg'
p1079
S'DZWM'
p1080
sS'merge_data/CYG8@1.jpg'
p1081
S'CYG8'
p1082
sS'merge_data/nawm@2.jpg'
p1083
S'nawm'
p1084
sS'merge_data/HDUR@3.jpg'
p1085
S'HDUR'
p1086
sS'merge_data/VK7W@4.jpg'
p1087
S'VK7W'
p1088
sS'merge_data/KAWT@1.jpg'
p1089
S'KAWT'
p1090
sS'merge_data/6sgd@1.jpg'
p1091
S'6sgd'
p1092
sS'merge_data/uf7t@1.jpg'
p1093
S'uf7t'
p1094
sS'merge_data/H6Vg@2.jpg'
p1095
S'H6Vg'
p1096
sS'merge_data/WTE5@1.jpg'
p1097
S'WTE5'
p1098
sS'merge_data/J9VK@1.jpg'
p1099
S'J9VK'
p1100
sS'merge_data/rm9y@1.jpg'
p1101
S'rm9y'
p1102
sS'merge_data/JAWH@3.jpg'
p1103
S'JAWH'
p1104
sS'merge_data/SG5U@3.jpg'
p1105
S'SG5U'
p1106
sS'merge_data/YGUJ@1.jpg'
p1107
S'YGUJ'
p1108
sS'merge_data/VGDU@1.jpg'
p1109
S'VGDU'
p1110
sS'merge_data/SGDZ@1.jpg'
p1111
S'SGDZ'
p1112
sS'merge_data/fbsp@1.jpg'
p1113
S'fbsp'
p1114
sS'merge_data/CYQK@1.jpg'
p1115
S'CYQK'
p1116
sS'merge_data/9wsg@1.jpg'
p1117
S'9wsg'
p1118
sS'merge_data/AWN9@3.jpg'
p1119
S'AWN9'
p1120
sS'merge_data/2NHY@1.jpg'
p1121
S'2NHY'
p1122
sS'merge_data/RF4Q@2.jpg'
p1123
S'RF4Q'
p1124
sS'merge_data/RFCY@1.jpg'
p1125
S'RFCY'
p1126
sS'merge_data/HDUQ@2.jpg'
p1127
S'HDUQ'
p1128
sS'merge_data/ZMHY@1.jpg'
p1129
S'ZMHY'
p1130
sS'merge_data/M8XK@11.jpg'
p1131
S'M8XK'
p1132
sS'merge_data/H8UK@1.jpg'
p1133
S'H8UK'
p1134
sS'merge_data/TE5S@1.jpg'
p1135
S'TE5S'
p1136
sS'merge_data/sgcz@2.jpg'
p1137
S'sgcz'
p1138
sS'merge_data/ypJz@1.jpg'
p1139
S'ypJz'
p1140
sS'merge_data/AXN9@3.jpg'
p1141
S'AXN9'
p1142
sS'merge_data/H6Vg@4.jpg'
p1143
S'H6Vg'
p1144
sS'merge_data/MGXU@6.jpg'
p1145
S'MGXU'
p1146
sS'merge_data/zqka@1.jpg'
p1147
S'zqka'
p1148
sS'merge_data/2NHZ@1.jpg'
p1149
S'2NHZ'
p1150
sS'merge_data/ARNC@1.jpg'
p1151
S'ARNC'
p1152
sS'merge_data/e2rd@1.jpg'
p1153
S'e2rd'
p1154
sS'merge_data/YVK7@1.jpg'
p1155
S'YVK7'
p1156
sS'merge_data/uj7t@1.jpg'
p1157
S'uj7t'
p1158
sS'merge_data/AWMH@2.jpg'
p1159
S'AWMH'
p1160
sS'merge_data/ctpb@2.jpg'
p1161
S'ctpb'
p1162
sS'merge_data/TPAZ@2.jpg'
p1163
S'TPAZ'
p1164
sS'merge_data/ypaz@2.jpg'
p1165
S'ypaz'
p1166
sS'merge_data/awth@1.jpg'
p1167
S'awth'
p1168
sS'merge_data/9WSG@3.jpg'
p1169
S'9WSG'
p1170
sS'merge_data/BXNA@1.jpg'
p1171
S'BXNA'
p1172
sS'merge_data/f4qe@1.jpg'
p1173
S'f4qe'
p1174
sS'merge_data/kawj@1.jpg'
p1175
S'kawj'
p1176
sS'merge_data/XN9W@1.jpg'
p1177
S'XN9W'
p1178
sS'merge_data/zmgy@1.jpg'
p1179
S'zmgy'
p1180
sS'merge_data/B2PD@2.jpg'
p1181
S'B2PD'
p1182
sS'merge_data/K8Xj@2.jpg'
p1183
S'K8Xj'
p1184
sS'merge_data/UQF3@2.jpg'
p1185
S'UQF3'
p1186
sS'merge_data/KFWS@1.jpg'
p1187
S'KFWS'
p1188
sS'merge_data/AXJ9@1.jpg'
p1189
S'AXJ9'
p1190
sS'merge_data/fbxp@1.jpg'
p1191
S'fbxp'
p1192
sS'merge_data/WMHY@1.jpg'
p1193
S'WMHY'
p1194
sS'merge_data/KAWN@2.jpg'
p1195
S'KAWN'
p1196
sS'merge_data/YPJ7@1.jpg'
p1197
S'YPJ7'
p1198
sS'merge_data/KAWS@1.jpg'
p1199
S'KAWS'
p1200
sS'merge_data/6snd@1.jpg'
p1201
S'6snd'
p1202
sS'merge_data/RF3P@1.jpg'
p1203
S'RF3P'
p1204
sS'merge_data/EBXN@1.jpg'
p1205
S'EBXN'
p1206
sS'merge_data/YPA2@1.jpg'
p1207
S'YPA2'
p1208
sS'merge_data/F6SP@1.jpg'
p1209
S'F6SP'
p1210
sS'merge_data/5RNC@1.jpg'
p1211
S'5RNC'
p1212
sS'merge_data/vkFw@1.jpg'
p1213
S'vkFw'
p1214
sS'merge_data/vrg4@1.jpg'
p1215
S'vrg4'
p1216
sS'merge_data/WTH5@1.jpg'
p1217
S'WTH5'
p1218
sS'merge_data/g8uq@1.jpg'
p1219
S'g8uq'
p1220
sS'merge_data/VK7U@2.jpg'
p1221
S'VK7U'
p1222
sS'merge_data/SDZR@1.jpg'
p1223
S'SDZR'
p1224
sS'merge_data/2nJz@1.jpg'
p1225
S'2nJz'
p1226
sS'merge_data/GCZQ@3.jpg'
p1227
S'GCZQ'
p1228
sS'merge_data/YPBX@1.jpg'
p1229
S'YPBX'
p1230
sS'merge_data/b2pd@1.jpg'
p1231
S'b2pd'
p1232
sS'merge_data/FBSP@3.jpg'
p1233
S'FBSP'
p1234
sS'merge_data/NAWM@3.jpg'
p1235
S'NAWM'
p1236
sS'merge_data/M8YK@2.jpg'
p1237
S'M8YK'
p1238
sS'merge_data/MGXU@9.jpg'
p1239
S'MGXU'
p1240
sS'merge_data/KF3T@2.jpg'
p1241
S'KF3T'
p1242
sS'merge_data/YPBX@2.jpg'
p1243
S'YPBX'
p1244
sS'merge_data/YUF7@1.jpg'
p1245
S'YUF7'
p1246
sS'merge_data/g7uj@1.jpg'
p1247
S'g7uj'
p1248
sS'merge_data/BXNH@1.jpg'
p1249
S'BXNH'
p1250
sS'merge_data/KAXJ@2.jpg'
p1251
S'KAXJ'
p1252
sS'merge_data/ctqe@1.jpg'
p1253
S'ctqe'
p1254
sS'merge_data/GDZQ@5.jpg'
p1255
S'GDZQ'
p1256
sS'merge_data/DZQC@4.jpg'
p1257
S'DZQC'
p1258
sS'merge_data/VRF4@1.jpg'
p1259
S'VRF4'
p1260
sS'merge_data/UKFW@1.jpg'
p1261
S'UKFW'
p1262
sS'merge_data/NCZQ@3.jpg'
p1263
S'NCZQ'
p1264
sS'merge_data/QCYP@1.jpg'
p1265
S'QCYP'
p1266
sS'merge_data/7WJ9@1.jpg'
p1267
S'7WJ9'
p1268
sS'merge_data/dzrc@1.jpg'
p1269
S'dzrc'
p1270
sS'merge_data/dzqc@1.jpg'
p1271
S'dzqc'
p1272
sS'merge_data/5RMC@1.jpg'
p1273
S'5RMC'
p1274
sS'merge_data/UJFW@1.jpg'
p1275
S'UJFW'
p1276
sS'merge_data/SPAZ@2.jpg'
p1277
S'SPAZ'
p1278
sS'merge_data/3pea@1.jpg'
p1279
S'3pea'
p1280
sS'merge_data/KBXT@2.jpg'
p1281
S'KBXT'
p1282
sS'merge_data/9zmg@1.jpg'
p1283
S'9zmg'
p1284
sS'merge_data/4QMB@1.jpg'
p1285
S'4QMB'
p1286
sS'merge_data/G4UF@2.jpg'
p1287
S'G4UF'
p1288
sS'merge_data/cyqb@1.jpg'
p1289
S'cyqb'
p1290
sS'merge_data/QF3P@1.jpg'
p1291
S'QF3P'
p1292
sS'merge_data/F4TE@4.jpg'
p1293
S'F4TE'
p1294
sS'merge_data/7UJE@3.jpg'
p1295
S'7UJE'
p1296
sS'merge_data/HYUF@1.jpg'
p1297
S'HYUF'
p1298
sS'merge_data/NJZV@3.jpg'
p1299
S'NJZV'
p1300
sS'merge_data/PJZV@5.jpg'
p1301
S'PJZV'
p1302
sS'merge_data/ZQBY@1.jpg'
p1303
S'ZQBY'
p1304
sS'merge_data/pj7w@1.jpg'
p1305
S'pj7w'
p1306
sS'merge_data/BSNC@1.jpg'
p1307
S'BSNC'
p1308
sS'merge_data/RC3P@1.jpg'
p1309
S'RC3P'
p1310
sS'merge_data/vk7u@2.jpg'
p1311
S'vk7u'
p1312
sS'merge_data/ZVG8@1.jpg'
p1313
S'ZVG8'
p1314
sS'merge_data/h5ug@1.jpg'
p1315
S'h5ug'
p1316
sS'merge_data/M8XK@9.jpg'
p1317
S'M8XK'
p1318
sS'merge_data/FBYP@1.jpg'
p1319
S'FBYP'
p1320
sS'merge_data/SG4T@2.jpg'
p1321
S'SG4T'
p1322
sS'merge_data/GXTJ@2.jpg'
p1323
S'GXTJ'
p1324
sS'merge_data/VK7W@5.jpg'
p1325
S'VK7W'
p1326
sS'merge_data/cyPK@1.jpg'
p1327
S'cyPK'
p1328
sS'merge_data/CYUK@1.jpg'
p1329
S'CYUK'
p1330
sS'merge_data/PEAW@3.jpg'
p1331
S'PEAW'
p1332
sS'merge_data/GXUJ@3.jpg'
p1333
S'GXUJ'
p1334
sS'merge_data/C3PK@1.jpg'
p1335
S'C3PK'
p1336
sS'merge_data/mGxT@1.jpg'
p1337
S'mGxT'
p1338
sS'merge_data/xnaw@1.jpg'
p1339
S'xnaw'
p1340
sS'merge_data/AXNH@4.jpg'
p1341
S'AXNH'
p1342
sS'merge_data/HYUG@3.jpg'
p1343
S'HYUG'
p1344
sS'merge_data/WM8V@3.jpg'
p1345
S'WM8V'
p1346
sS'merge_data/M8XK@10.jpg'
p1347
S'M8XK'
p1348
sS'merge_data/E2RD@6.jpg'
p1349
S'E2RD'
p1350
sS'merge_data/WH8V@1.jpg'
p1351
S'WH8V'
p1352
sS'merge_data/cuqe@1.jpg'
p1353
S'cuqe'
p1354
sS'merge_data/TE5R@1.jpg'
p1355
S'TE5R'
p1356
sS'merge_data/bypa@2.jpg'
p1357
S'bypa'
p1358
sS'merge_data/MBXP@2.jpg'
p1359
S'MBXP'
p1360
sS'merge_data/NAZM@1.jpg'
p1361
S'NAZM'
p1362
sS'merge_data/SG5R@6.jpg'
p1363
S'SG5R'
p1364
sS'merge_data/MGXU@5.jpg'
p1365
S'MGXU'
p1366
sS'merge_data/g4rf@1.jpg'
p1367
S'g4rf'
p1368
sS'merge_data/F6TH@1.jpg'
p1369
S'F6TH'
p1370
sS'merge_data/6VH8@1.jpg'
p1371
S'6VH8'
p1372
sS'merge_data/hd2r@2.jpg'
p1373
S'hd2r'
p1374
sS'merge_data/2NCZ@2.jpg'
p1375
S'2NCZ'
p1376
sS'merge_data/PJZW@7.jpg'
p1377
S'PJZW'
p1378
sS'merge_data/QE3S@1.jpg'
p1379
S'QE3S'
p1380
sS'merge_data/VKG4@2.jpg'
p1381
S'VKG4'
p1382
sS'merge_data/axnH@2.jpg'
p1383
S'axnH'
p1384
sS'merge_data/ASN9@2.jpg'
p1385
S'ASN9'
p1386
sS'merge_data/8yka@1.jpg'
p1387
S'8yka'
p1388
sS'merge_data/BXPJ@1.jpg'
p1389
S'BXPJ'
p1390
sS'merge_data/K7WJ@1.jpg'
p1391
S'K7WJ'
p1392
sS'merge_data/HDUR@4.jpg'
p1393
S'HDUR'
p1394
sS'merge_data/SD4R@1.jpg'
p1395
S'SD4R'
p1396
sS'merge_data/2NJZ@3.jpg'
p1397
S'2NJZ'
p1398
sS'merge_data/b2pj@3.jpg'
p1399
S'b2pj'
p1400
sS'merge_data/AWM8@1.jpg'
p1401
S'AWM8'
p1402
sS'merge_data/SNDZ@2.jpg'
p1403
S'SNDZ'
p1404
sS'merge_data/5UG7@2.jpg'
p1405
S'5UG7'
p1406
sS'merge_data/bxpa@1.jpg'
p1407
S'bxpa'
p1408
sS'merge_data/xkfw@1.jpg'
p1409
S'xkfw'
p1410
sS'merge_data/vg8u@2.jpg'
p1411
S'vg8u'
p1412
sS'merge_data/SD4R@8.jpg'
p1413
S'SD4R'
p1414
sS'merge_data/8YKF@4.jpg'
p1415
S'8YKF'
p1416
sS'merge_data/KAXJ@1.jpg'
p1417
S'KAXJ'
p1418
sS'merge_data/RF3S@2.jpg'
p1419
S'RF3S'
p1420
sS'merge_data/RC3Q@2.jpg'
p1421
S'RC3Q'
p1422
sS'merge_data/hevr@1.jpg'
p1423
S'hevr'
p1424
sS'merge_data/d4rM@1.jpg'
p1425
S'd4rM'
p1426
sS'merge_data/YKAX@2.jpg'
p1427
S'YKAX'
p1428
sS'merge_data/xuf6@1.jpg'
p1429
S'xuf6'
p1430
sS'merge_data/xkfw@2.jpg'
p1431
S'xkfw'
p1432
sS'merge_data/5RMB@2.jpg'
p1433
S'5RMB'
p1434
sS'merge_data/9VKF@1.jpg'
p1435
S'9VKF'
p1436
sS'merge_data/F4Te@2.jpg'
p1437
S'F4Te'
p1438
sS'merge_data/PDAW@1.jpg'
p1439
S'PDAW'
p1440
sS'merge_data/DZQK@2.jpg'
p1441
S'DZQK'
p1442
sS'merge_data/9YMB@2.jpg'
p1443
S'9YMB'
p1444
sS'merge_data/pjzv@1.jpg'
p1445
S'pjzv'
p1446
sS'merge_data/g5rf@1.jpg'
p1447
S'g5rf'
p1448
sS'merge_data/F3SD@1.jpg'
p1449
S'F3SD'
p1450
sS'merge_data/YKFX@1.jpg'
p1451
S'YKFX'
p1452
sS'merge_data/hDuR@1.jpg'
p1453
S'hDuR'
p1454
sS'merge_data/xth6@2.jpg'
p1455
S'xth6'
p1456
sS'merge_data/YPB2@1.jpg'
p1457
S'YPB2'
p1458
sS'merge_data/QE2R@1.jpg'
p1459
S'QE2R'
p1460
sS'merge_data/5UFC@2.jpg'
p1461
S'5UFC'
p1462
sS'merge_data/7UQE@1.jpg'
p1463
S'7UQE'
p1464
sS'merge_data/NCZM@2.jpg'
p1465
S'NCZM'
p1466
sS'merge_data/KGXT@5.jpg'
p1467
S'KGXT'
p1468
sS'merge_data/G7TH@2.jpg'
p1469
S'G7TH'
p1470
sS'merge_data/XJFW@2.jpg'
p1471
S'XJFW'
p1472
sS'merge_data/XPAW@5.jpg'
p1473
S'XPAW'
p1474
sS'merge_data/YPJZ@3.jpg'
p1475
S'YPJZ'
p1476
sS'merge_data/sgcz@1.jpg'
p1477
S'sgcz'
p1478
sS'merge_data/nczq@1.jpg'
p1479
S'nczq'
p1480
sS'merge_data/Qc3P@1.jpg'
p1481
S'Qc3P'
p1482
sS'merge_data/Tf6s@1.jpg'
p1483
S'Tf6s'
p1484
sS'merge_data/PAZM@2.jpg'
p1485
S'PAZM'
p1486
sS'merge_data/WMGX@2.jpg'
p1487
S'WMGX'
p1488
sS'merge_data/D2NC@1.jpg'
p1489
S'D2NC'
p1490
sS'merge_data/XTE6@1.jpg'
p1491
S'XTE6'
p1492
sS'merge_data/WTE5@2.jpg'
p1493
S'WTE5'
p1494
sS'merge_data/tebs@1.jpg'
p1495
S'tebs'
p1496
sS'merge_data/j6sh@1.jpg'
p1497
S'j6sh'
p1498
sS'merge_data/J9WM@1.jpg'
p1499
S'J9WM'
p1500
sS'merge_data/MHYU@2.jpg'
p1501
S'MHYU'
p1502
sS'merge_data/m8xj@1.jpg'
p1503
S'm8xj'
p1504
sS'merge_data/SD4R@2.jpg'
p1505
S'SD4R'
p1506
sS'merge_data/WNHY@1.jpg'
p1507
S'WNHY'
p1508
sS'merge_data/4rfb@2.jpg'
p1509
S'4rfb'
p1510
sS'merge_data/e5rm@1.jpg'
p1511
S'e5rm'
p1512
sS'merge_data/XN9Y@2.jpg'
p1513
S'XN9Y'
p1514
sS'merge_data/WM9Y@1.jpg'
p1515
S'WM9Y'
p1516
sS'merge_data/EVRD@3.jpg'
p1517
S'EVRD'
p1518
sS'merge_data/J9VR@1.jpg'
p1519
S'J9VR'
p1520
sS'merge_data/8YKA@1.jpg'
p1521
S'8YKA'
p1522
sS'merge_data/VG8U@1.jpg'
p1523
S'VG8U'
p1524
sS'merge_data/AWSH@1.jpg'
p1525
S'AWSH'
p1526
sS'merge_data/HYVG@1.jpg'
p1527
S'HYVG'
p1528
sS'merge_data/BYPA@2.jpg'
p1529
S'BYPA'
p1530
sS'merge_data/VRG4@2.jpg'
p1531
S'VRG4'
p1532
sS'merge_data/wmh5@1.jpg'
p1533
S'wmh5'
p1534
sS'merge_data/vsg4@1.jpg'
p1535
S'vsg4'
p1536
sS'merge_data/QB3P@2.jpg'
p1537
S'QB3P'
p1538
sS'merge_data/uqe3@1.jpg'
p1539
S'uqe3'
p1540
sS'merge_data/e2pd@1.jpg'
p1541
S'e2pd'
p1542
sS'merge_data/GCTP@2.jpg'
p1543
S'GCTP'
p1544
sS'merge_data/DuRc@2.jpg'
p1545
S'DuRc'
p1546
sS'merge_data/EVRF@3.jpg'
p1547
S'EVRF'
p1548
sS'merge_data/sh5r@2.jpg'
p1549
S'sh5r'
p1550
sS'merge_data/GyUf@1.jpg'
p1551
S'GyUf'
p1552
sS'merge_data/8YKF@3.jpg'
p1553
S'8YKF'
p1554
sS'merge_data/YVG8@1.jpg'
p1555
S'YVG8'
p1556
sS'merge_data/PDAW@2.jpg'
p1557
S'PDAW'
p1558
sS'merge_data/YUJ7@6.jpg'
p1559
S'YUJ7'
p1560
sS'merge_data/awmh@1.jpg'
p1561
S'awmh'
p1562
sS'merge_data/rmcy@1.jpg'
p1563
S'rmcy'
p1564
sS'merge_data/XPJ6@1.jpg'
p1565
S'XPJ6'
p1566
sS'merge_data/5VGC@1.jpg'
p1567
S'5VGC'
p1568
sS'merge_data/4TEA@1.jpg'
p1569
S'4TEA'
p1570
sS'merge_data/7wh9@2.jpg'
p1571
S'7wh9'
p1572
sS'merge_data/QBXN@1.jpg'
p1573
S'QBXN'
p1574
sS'merge_data/awth@3.jpg'
p1575
S'awth'
p1576
sS'merge_data/5SGC@6.jpg'
p1577
S'5SGC'
p1578
sS'merge_data/TPB2@1.jpg'
p1579
S'TPB2'
p1580
sS'merge_data/8Xj9@1.jpg'
p1581
S'8Xj9'
p1582
sS'merge_data/czVK@1.jpg'
p1583
S'czVK'
p1584
sS'merge_data/FBTP@1.jpg'
p1585
S'FBTP'
p1586
sS'merge_data/wjev@1.jpg'
p1587
S'wjev'
p1588
sS'merge_data/gxuf@1.jpg'
p1589
S'gxuf'
p1590
sS'merge_data/uf6t@1.jpg'
p1591
S'uf6t'
p1592
sS'merge_data/BXNA@6.jpg'
p1593
S'BXNA'
p1594
sS'merge_data/EVRF@1.jpg'
p1595
S'EVRF'
p1596
sS'merge_data/rncy@1.jpg'
p1597
S'rncy'
p1598
sS'merge_data/GDZQ@1.jpg'
p1599
S'GDZQ'
p1600
sS'merge_data/RCYQ@1.jpg'
p1601
S'RCYQ'
p1602
sS'merge_data/DARM@1.jpg'
p1603
S'DARM'
p1604
sS'merge_data/B3PD@1.jpg'
p1605
S'B3PD'
p1606
sS'merge_data/ZQB2@1.jpg'
p1607
S'ZQB2'
p1608
sS'merge_data/RM9Y@2.jpg'
p1609
S'RM9Y'
p1610
sS'merge_data/G5RF@2.jpg'
p1611
S'G5RF'
p1612
sS'merge_data/C3PD@1.jpg'
p1613
S'C3PD'
p1614
sS'merge_data/SGCZ@1.jpg'
p1615
S'SGCZ'
p1616
sS'merge_data/SNCZ@5.jpg'
p1617
S'SNCZ'
p1618
sS'merge_data/2NJZ@6.jpg'
p1619
S'2NJZ'
p1620
sS'merge_data/GXTH@2.jpg'
p1621
S'GXTH'
p1622
sS'merge_data/dzrm@1.jpg'
p1623
S'dzrm'
p1624
sS'merge_data/F3QE@1.jpg'
p1625
S'F3QE'
p1626
sS'merge_data/vmG4@1.jpg'
p1627
S'vmG4'
p1628
sS'merge_data/rc3q@1.jpg'
p1629
S'rc3q'
p1630
sS'merge_data/UKFW@3.jpg'
p1631
S'UKFW'
p1632
sS'merge_data/bxn9@1.jpg'
p1633
S'bxn9'
p1634
sS'merge_data/ncyv@1.jpg'
p1635
S'ncyv'
p1636
sS'merge_data/YKGX@4.jpg'
p1637
S'YKGX'
p1638
sS'merge_data/J7TH@1.jpg'
p1639
S'J7TH'
p1640
sS'merge_data/K8UJ@1.jpg'
p1641
S'K8UJ'
p1642
sS'merge_data/Rcyq@1.jpg'
p1643
S'Rcyq'
p1644
sS'merge_data/2RDZ@1.jpg'
p1645
S'2RDZ'
p1646
sS'merge_data/J6Wh@1.jpg'
p1647
S'J6Wh'
p1648
sS'merge_data/RDZQ@2.jpg'
p1649
S'RDZQ'
p1650
sS'merge_data/qm8x@1.jpg'
p1651
S'qm8x'
p1652
sS'merge_data/H8VK@1.jpg'
p1653
S'H8VK'
p1654
sS'merge_data/KFWT@5.jpg'
p1655
S'KFWT'
p1656
sS'merge_data/M9VK@2.jpg'
p1657
S'M9VK'
p1658
sS'merge_data/F4qe@1.jpg'
p1659
S'F4qe'
p1660
sS'merge_data/pear@2.jpg'
p1661
S'pear'
p1662
sS'merge_data/DZQC@1.jpg'
p1663
S'DZQC'
p1664
sS'merge_data/SGDZ@4.jpg'
p1665
S'SGDZ'
p1666
sS'merge_data/J7WH@5.jpg'
p1667
S'J7WH'
p1668
sS'merge_data/NCZV@1.jpg'
p1669
S'NCZV'
p1670
sS'merge_data/WSG4@2.jpg'
p1671
S'WSG4'
p1672
sS'merge_data/SE5R@1.jpg'
p1673
S'SE5R'
p1674
sS'merge_data/5UG7@1.jpg'
p1675
S'5UG7'
p1676
sS'merge_data/QE3p@1.jpg'
p1677
S'QE3p'
p1678
sS'merge_data/5sgc@1.jpg'
p1679
S'5sgc'
p1680
sS'merge_data/UQE2@2.jpg'
p1681
S'UQE2'
p1682
sS'merge_data/qeaw@1.jpg'
p1683
S'qeaw'
p1684
sS'merge_data/durf@1.jpg'
p1685
S'durf'
p1686
sS'merge_data/J7WH@3.jpg'
p1687
S'J7WH'
p1688
sS'merge_data/e2nd@1.jpg'
p1689
S'e2nd'
p1690
sS'merge_data/RFBS@3.jpg'
p1691
S'RFBS'
p1692
sS'merge_data/ykbx@1.jpg'
p1693
S'ykbx'
p1694
sS'merge_data/UQF3@3.jpg'
p1695
S'UQF3'
p1696
sS'merge_data/3PDA@3.jpg'
p1697
S'3PDA'
p1698
sS'merge_data/qc3p@2.jpg'
p1699
S'qc3p'
p1700
sS'merge_data/mbxn@3.jpg'
p1701
S'mbxn'
p1702
sS'merge_data/ZVK7@2.jpg'
p1703
S'ZVK7'
p1704
sS'merge_data/BTPD@1.jpg'
p1705
S'BTPD'
p1706
sS'merge_data/3pea@2.jpg'
p1707
S'3pea'
p1708
sS'merge_data/sd4r@4.jpg'
p1709
S'sd4r'
p1710
sS'merge_data/AXNH@3.jpg'
p1711
S'AXNH'
p1712
sS'merge_data/pJAW@1.jpg'
p1713
S'pJAW'
p1714
sS'merge_data/AWJ9@1.jpg'
p1715
S'AWJ9'
p1716
sS'merge_data/qe2p@3.jpg'
p1717
S'qe2p'
p1718
sS'merge_data/QK7W@1.jpg'
p1719
S'QK7W'
p1720
sS'merge_data/5uf7@1.jpg'
p1721
S'5uf7'
p1722
sS'merge_data/KGXT@1.jpg'
p1723
S'KGXT'
p1724
sS'merge_data/BXNa@1.jpg'
p1725
S'BXNa'
p1726
sS'merge_data/PDZQ@2.jpg'
p1727
S'PDZQ'
p1728
sS'merge_data/UG7T@2.jpg'
p1729
S'UG7T'
p1730
sS'merge_data/B3PJ@1.jpg'
p1731
S'B3PJ'
p1732
sS'merge_data/ZMCY@1.jpg'
p1733
S'ZMCY'
p1734
sS'merge_data/byuj@3.jpg'
p1735
S'byuj'
p1736
sS'merge_data/CtPD@1.jpg'
p1737
S'CtPD'
p1738
sS'merge_data/E2SD@1.jpg'
p1739
S'E2SD'
p1740
sS'merge_data/WhDu@1.jpg'
p1741
S'WhDu'
p1742
sS'merge_data/4QEB@3.jpg'
p1743
S'4QEB'
p1744
sS'merge_data/PDAR@1.jpg'
p1745
S'PDAR'
p1746
sS'merge_data/9Ymb@2.jpg'
p1747
S'9Ymb'
p1748
sS'merge_data/VKFX@3.jpg'
p1749
S'VKFX'
p1750
sS'merge_data/G7TQ@2.jpg'
p1751
S'G7TQ'
p1752
sS'merge_data/AZMC@1.jpg'
p1753
S'AZMC'
p1754
sS'merge_data/7WH8@1.jpg'
p1755
S'7WH8'
p1756
sS'merge_data/D4RM@2.jpg'
p1757
S'D4RM'
p1758
sS'merge_data/8Xja@1.jpg'
p1759
S'8Xja'
p1760
sS'merge_data/E2RC@3.jpg'
p1761
S'E2RC'
p1762
sS'merge_data/DAWM@1.jpg'
p1763
S'DAWM'
p1764
sS'merge_data/H9VK@1.jpg'
p1765
S'H9VK'
p1766
sS'merge_data/SGCU@1.jpg'
p1767
S'SGCU'
p1768
sS'merge_data/6sPD@1.jpg'
p1769
S'6sPD'
p1770
sS'merge_data/PDZW@3.jpg'
p1771
S'PDZW'
p1772
sS'merge_data/YKBX@1.jpg'
p1773
S'YKBX'
p1774
sS'merge_data/ypb2@2.jpg'
p1775
S'ypb2'
p1776
sS'merge_data/SPDZ@1.jpg'
p1777
S'SPDZ'
p1778
sS'merge_data/e2rc@1.jpg'
p1779
S'e2rc'
p1780
sS'merge_data/SG5R@1.jpg'
p1781
S'SG5R'
p1782
sS'merge_data/sgcy@1.jpg'
p1783
S'sgcy'
p1784
sS'merge_data/B2ND@2.jpg'
p1785
S'B2ND'
p1786
sS'merge_data/rNCY@1.jpg'
p1787
S'rNCY'
p1788
sS'merge_data/DURC@3.jpg'
p1789
S'DURC'
p1790
sS'merge_data/UJF3@3.jpg'
p1791
S'UJF3'
p1792
sS'merge_data/wse5@1.jpg'
p1793
S'wse5'
p1794
sS'merge_data/Rc3q@1.jpg'
p1795
S'Rc3q'
p1796
sS'merge_data/K7WH@1.jpg'
p1797
S'K7WH'
p1798
sS'merge_data/b2nc@2.jpg'
p1799
S'b2nc'
p1800
sS'merge_data/zqb2@1.jpg'
p1801
S'zqb2'
p1802
sS'merge_data/gctq@2.jpg'
p1803
S'gctq'
p1804
sS'merge_data/d4rm@1.jpg'
p1805
S'd4rm'
p1806
sS'merge_data/QC3P@4.jpg'
p1807
S'QC3P'
p1808
sS'merge_data/B2PD@4.jpg'
p1809
S'B2PD'
p1810
sS'merge_data/f6th@1.jpg'
p1811
S'f6th'
p1812
sS'merge_data/5UF6@1.jpg'
p1813
S'5UF6'
p1814
sS'merge_data/E5RF@3.jpg'
p1815
S'E5RF'
p1816
sS'merge_data/A2NH@1.jpg'
p1817
S'A2NH'
p1818
sS'merge_data/EVRF@5.jpg'
p1819
S'EVRF'
p1820
sS'merge_data/3pjz@1.jpg'
p1821
S'3pjz'
p1822
sS'merge_data/3SeA@1.jpg'
p1823
S'3SeA'
p1824
sS'merge_data/G4TF@4.jpg'
p1825
S'G4TF'
p1826
sS'merge_data/dncy@1.jpg'
p1827
S'dncy'
p1828
sS'merge_data/G4RF@1.jpg'
p1829
S'G4RF'
p1830
sS'merge_data/zncy@1.jpg'
p1831
S'zncy'
p1832
sS'merge_data/b2pd@2.jpg'
p1833
S'b2pd'
p1834
sS'merge_data/NCYP@1.jpg'
p1835
S'NCYP'
p1836
sS'merge_data/CYPA@1.jpg'
p1837
S'CYPA'
p1838
sS'merge_data/XKAW@2.jpg'
p1839
S'XKAW'
p1840
sS'merge_data/yuk7@2.jpg'
p1841
S'yuk7'
p1842
sS'merge_data/YQK7@3.jpg'
p1843
S'YQK7'
p1844
sS'merge_data/RGCT@1.jpg'
p1845
S'RGCT'
p1846
sS'merge_data/G5RF@4.jpg'
p1847
S'G5RF'
p1848
sS'merge_data/tjev@1.jpg'
p1849
S'tjev'
p1850
sS'merge_data/f6tp@1.jpg'
p1851
S'f6tp'
p1852
sS'merge_data/fCYP@1.jpg'
p1853
S'fCYP'
p1854
sS'merge_data/H5UG@3.jpg'
p1855
S'H5UG'
p1856
sS'merge_data/HD2R@2.jpg'
p1857
S'HD2R'
p1858
sS'merge_data/VKG4@1.jpg'
p1859
S'VKG4'
p1860
sS'merge_data/VH8U@1.jpg'
p1861
S'VH8U'
p1862
sS'merge_data/MBXk@1.jpg'
p1863
S'MBXk'
p1864
sS'merge_data/nczq@2.jpg'
p1865
S'nczq'
p1866
sS'merge_data/SG5R@5.jpg'
p1867
S'SG5R'
p1868
sS'merge_data/8UJF@5.jpg'
p1869
S'8UJF'
p1870
sS'merge_data/8uRF@1.jpg'
p1871
S'8uRF'
p1872
sS'merge_data/7THE@3.jpg'
p1873
S'7THE'
p1874
sS'merge_data/gcuq@1.jpg'
p1875
S'gcuq'
p1876
sS'merge_data/PaZn@1.jpg'
p1877
S'PaZn'
p1878
sS'merge_data/E5RN@3.jpg'
p1879
S'E5RN'
p1880
sS'merge_data/awTH@2.jpg'
p1881
S'awTH'
p1882
sS'merge_data/bxnj@2.jpg'
p1883
S'bxnj'
p1884
sS'merge_data/ncyV@1.jpg'
p1885
S'ncyV'
p1886
sS'merge_data/qk7w@1.jpg'
p1887
S'qk7w'
p1888
sS'merge_data/yuj7@1.jpg'
p1889
S'yuj7'
p1890
sS'merge_data/SG4R@2.jpg'
p1891
S'SG4R'
p1892
sS'merge_data/K7WH@2.jpg'
p1893
S'K7WH'
p1894
sS'merge_data/URF3@1.jpg'
p1895
S'URF3'
p1896
sS'merge_data/M8XK@7.jpg'
p1897
S'M8XK'
p1898
sS'merge_data/RMBY@1.jpg'
p1899
S'RMBY'
p1900
sS'merge_data/QB2P@1.jpg'
p1901
S'QB2P'
p1902
sS'merge_data/FBYP@4.jpg'
p1903
S'FBYP'
p1904
sS'merge_data/XN9W@2.jpg'
p1905
S'XN9W'
p1906
sS'merge_data/2PDZ@2.jpg'
p1907
S'2PDZ'
p1908
sS'merge_data/6SPD@1.jpg'
p1909
S'6SPD'
p1910
sS'merge_data/UF7T@1.jpg'
p1911
S'UF7T'
p1912
sS'merge_data/FWSD@2.jpg'
p1913
S'FWSD'
p1914
sS'merge_data/YPK7@1.jpg'
p1915
S'YPK7'
p1916
sS'merge_data/UG7T@4.jpg'
p1917
S'UG7T'
p1918
sS'merge_data/gxtf@2.jpg'
p1919
S'gxtf'
p1920
sS'merge_data/YUJ6@1.jpg'
p1921
S'YUJ6'
p1922
sS'merge_data/VRF3@1.jpg'
p1923
S'VRF3'
p1924
sS'merge_data/C3QE@2.jpg'
p1925
S'C3QE'
p1926
sS'merge_data/e2sd@1.jpg'
p1927
S'e2sd'
p1928
sS'merge_data/NDZM@1.jpg'
p1929
S'NDZM'
p1930
sS'merge_data/QFBX@2.jpg'
p1931
S'QFBX'
p1932
sS'merge_data/d4qe@1.jpg'
p1933
S'd4qe'
p1934
sS'merge_data/XUF6@2.jpg'
p1935
S'XUF6'
p1936
sS'merge_data/F4TE@6.jpg'
p1937
S'F4TE'
p1938
sS'merge_data/UF6T@4.jpg'
p1939
S'UF6T'
p1940
sS'merge_data/UJ6V@1.jpg'
p1941
S'UJ6V'
p1942
sS'merge_data/Ykax@1.jpg'
p1943
S'Ykax'
p1944
sS'merge_data/UJEV@1.jpg'
p1945
S'UJEV'
p1946
sS'merge_data/JEWS@1.jpg'
p1947
S'JEWS'
p1948
sS'merge_data/H8VR@1.jpg'
p1949
S'H8VR'
p1950
sS'merge_data/3PJA@1.jpg'
p1951
S'3PJA'
p1952
sS'merge_data/BXNA@8.jpg'
p1953
S'BXNA'
p1954
sS'merge_data/EAXN@2.jpg'
p1955
S'EAXN'
p1956
sS'merge_data/XN9w@1.jpg'
p1957
S'XN9w'
p1958
sS'merge_data/EBXN@2.jpg'
p1959
S'EBXN'
p1960
sS'merge_data/zmby@2.jpg'
p1961
S'zmby'
p1962
sS'merge_data/SdAr@1.jpg'
p1963
S'SdAr'
p1964
sS'merge_data/rfbs@1.jpg'
p1965
S'rfbs'
p1966
sS'merge_data/F7TP@1.jpg'
p1967
S'F7TP'
p1968
sS'merge_data/DZRC@4.jpg'
p1969
S'DZRC'
p1970
sS'merge_data/RMBY@2.jpg'
p1971
S'RMBY'
p1972
sS'merge_data/VK7u@1.jpg'
p1973
S'VK7u'
p1974
sS'merge_data/9zmb@1.jpg'
p1975
S'9zmb'
p1976
sS'merge_data/m8yk@1.jpg'
p1977
S'm8yk'
p1978
sS'merge_data/XNaZ@1.jpg'
p1979
S'XNaZ'
p1980
sS'merge_data/SEAR@3.jpg'
p1981
S'SEAR'
p1982
sS'merge_data/bxpj@1.jpg'
p1983
S'bxpj'
p1984
sS'merge_data/NHZV@3.jpg'
p1985
S'NHZV'
p1986
sS'merge_data/kbxj@1.jpg'
p1987
S'kbxj'
p1988
sS'merge_data/7tqe@2.jpg'
p1989
S'7tqe'
p1990
sS'merge_data/RF3q@1.jpg'
p1991
S'RF3q'
p1992
sS'merge_data/ZQM8@1.jpg'
p1993
S'ZQM8'
p1994
sS'merge_data/M8VK@2.jpg'
p1995
S'M8VK'
p1996
sS'merge_data/8XKF@2.jpg'
p1997
S'8XKF'
p1998
sS'merge_data/gxuj@2.jpg'
p1999
S'gxuj'
p2000
sS'merge_data/G5RF@1.jpg'
p2001
S'G5RF'
p2002
sS'merge_data/B2PJ@3.jpg'
p2003
S'B2PJ'
p2004
sS'merge_data/PB2N@5.jpg'
p2005
S'PB2N'
p2006
sS'merge_data/8xjf@1.jpg'
p2007
S'8xjf'
p2008
sS'merge_data/ZmHy@1.jpg'
p2009
S'ZmHy'
p2010
sS'merge_data/D2nc@1.jpg'
p2011
S'D2nc'
p2012
sS'merge_data/ARM9@1.jpg'
p2013
S'ARM9'
p2014
sS'merge_data/6VGC@1.jpg'
p2015
S'6VGC'
p2016
sS'merge_data/ZQc3@1.jpg'
p2017
S'ZQc3'
p2018
sS'merge_data/MGXU@8.jpg'
p2019
S'MGXU'
p2020
sS'merge_data/4qkb@1.jpg'
p2021
S'4qkb'
p2022
sS'merge_data/QEAX@1.jpg'
p2023
S'QEAX'
p2024
sS'merge_data/QEAR@1.jpg'
p2025
S'QEAR'
p2026
sS'merge_data/CZMB@1.jpg'
p2027
S'CZMB'
p2028
sS'merge_data/VK7W@3.jpg'
p2029
S'VK7W'
p2030
sS'merge_data/3SEA@1.jpg'
p2031
S'3SEA'
p2032
sS'merge_data/WJEV@2.jpg'
p2033
S'WJEV'
p2034
sS'merge_data/8XJ9@1.jpg'
p2035
S'8XJ9'
p2036
sS'merge_data/3pdz@1.jpg'
p2037
S'3pdz'
p2038
sS'merge_data/KFXT@2.jpg'
p2039
S'KFXT'
p2040
sS'merge_data/3PDA@4.jpg'
p2041
S'3PDA'
p2042
sS'merge_data/CYPK@4.jpg'
p2043
S'CYPK'
p2044
sS'merge_data/BXNA@5.jpg'
p2045
S'BXNA'
p2046
sS'merge_data/SE5R@3.jpg'
p2047
S'SE5R'
p2048
sS'merge_data/SGDU@4.jpg'
p2049
S'SGDU'
p2050
sS'merge_data/evrd@3.jpg'
p2051
S'evrd'
p2052
sS'merge_data/QKAX@3.jpg'
p2053
S'QKAX'
p2054
sS'merge_data/PDZR@2.jpg'
p2055
S'PDZR'
p2056
sS'merge_data/j6wh@1.jpg'
p2057
S'j6wh'
p2058
sS'merge_data/SGDZ@2.jpg'
p2059
S'SGDZ'
p2060
sS'merge_data/QBXP@1.jpg'
p2061
S'QBXP'
p2062
sS'merge_data/XNAW@3.jpg'
p2063
S'XNAW'
p2064
sS'merge_data/7uje@1.jpg'
p2065
S'7uje'
p2066
sS'merge_data/MG5U@1.jpg'
p2067
S'MG5U'
p2068
sS'merge_data/ZQKB@1.jpg'
p2069
S'ZQKB'
p2070
sS'merge_data/PJ7W@1.jpg'
p2071
S'PJ7W'
p2072
sS'merge_data/F4QE@1.jpg'
p2073
S'F4QE'
p2074
sS'merge_data/yvg7@1.jpg'
p2075
S'yvg7'
p2076
sS'merge_data/g7th@1.jpg'
p2077
S'g7th'
p2078
sS'merge_data/HYUJ@2.jpg'
p2079
S'HYUJ'
p2080
sS'merge_data/CTPB@1.jpg'
p2081
S'CTPB'
p2082
sS'merge_data/WH9V@1.jpg'
p2083
S'WH9V'
p2084
sS'merge_data/TH6V@3.jpg'
p2085
S'TH6V'
p2086
sS'merge_data/SG5r@1.jpg'
p2087
S'SG5r'
p2088
sS'merge_data/2PJZ@2.jpg'
p2089
S'2PJZ'
p2090
sS'merge_data/mcyk@1.jpg'
p2091
S'mcyk'
p2092
sS'merge_data/E5SG@2.jpg'
p2093
S'E5SG'
p2094
sS'merge_data/2NCZ@1.jpg'
p2095
S'2NCZ'
p2096
sS'merge_data/qeBX@1.jpg'
p2097
S'qeBX'
p2098
sS'merge_data/F4TE@5.jpg'
p2099
S'F4TE'
p2100
sS'merge_data/pdzw@1.jpg'
p2101
S'pdzw'
p2102
sS'merge_data/K7UJ@1.jpg'
p2103
S'K7UJ'
p2104
sS'merge_data/earn@1.jpg'
p2105
S'earn'
p2106
sS'merge_data/D2RC@3.jpg'
p2107
S'D2RC'
p2108
sS'merge_data/6SPD@2.jpg'
p2109
S'6SPD'
p2110
sS'merge_data/RCYP@1.jpg'
p2111
S'RCYP'
p2112
sS'merge_data/CYUK@2.jpg'
p2113
S'CYUK'
p2114
sS'merge_data/VSG4@3.jpg'
p2115
S'VSG4'
p2116
sS'merge_data/gxth@1.jpg'
p2117
S'gxth'
p2118
sS'merge_data/QB2P@3.jpg'
p2119
S'QB2P'
p2120
sS'merge_data/6TPD@1.jpg'
p2121
S'6TPD'
p2122
sS'merge_data/NaZm@1.jpg'
p2123
S'NaZm'
p2124
sS'merge_data/hdur@1.jpg'
p2125
S'hdur'
p2126
sS'merge_data/F3TE@1.jpg'
p2127
S'F3TE'
p2128
sS'merge_data/SGCZ@2.jpg'
p2129
S'SGCZ'
p2130
sS'merge_data/5Vg7@1.jpg'
p2131
S'5Vg7'
p2132
sS'merge_data/ZNCY@1.jpg'
p2133
S'ZNCY'
p2134
sS'merge_data/zvk8@1.jpg'
p2135
S'zvk8'
p2136
sS'merge_data/xnaz@1.jpg'
p2137
S'xnaz'
p2138
sS'merge_data/VSD4@3.jpg'
p2139
S'VSD4'
p2140
sS'merge_data/MBXJ@1.jpg'
p2141
S'MBXJ'
p2142
sS'merge_data/G7TJ@1.jpg'
p2143
S'G7TJ'
p2144
sS'merge_data/RM9Y@1.jpg'
p2145
S'RM9Y'
p2146
sS'merge_data/dawm@1.jpg'
p2147
S'dawm'
p2148
sS'merge_data/EVRG@2.jpg'
p2149
S'EVRG'
p2150
sS'merge_data/9vkf@1.jpg'
p2151
S'9vkf'
p2152
sS'merge_data/M8XK@8.jpg'
p2153
S'M8XK'
p2154
sS'merge_data/MBXT@1.jpg'
p2155
S'MBXT'
p2156
sS'merge_data/BXNJ@1.jpg'
p2157
S'BXNJ'
p2158
sS'merge_data/UGCT@1.jpg'
p2159
S'UGCT'
p2160
sS'merge_data/MCYP@3.jpg'
p2161
S'MCYP'
p2162
sS'merge_data/hzvg@1.jpg'
p2163
S'hzvg'
p2164
sS'merge_data/DZQM@5.jpg'
p2165
S'DZQM'
p2166
sS'merge_data/dzWM@1.jpg'
p2167
S'dzWM'
p2168
sS'merge_data/mh5u@2.jpg'
p2169
S'mh5u'
p2170
sS'merge_data/YPAX@1.jpg'
p2171
S'YPAX'
p2172
sS'merge_data/RF3S@6.jpg'
p2173
S'RF3S'
p2174
sS'merge_data/AWNH@2.jpg'
p2175
S'AWNH'
p2176
sS'merge_data/VK8U@2.jpg'
p2177
S'VK8U'
p2178
sS'merge_data/SG4U@1.jpg'
p2179
S'SG4U'
p2180
sS'merge_data/NAWM@4.jpg'
p2181
S'NAWM'
p2182
sS'merge_data/3SD5@1.jpg'
p2183
S'3SD5'
p2184
sS'merge_data/ZWH8@1.jpg'
p2185
S'ZWH8'
p2186
sS'merge_data/B2NH@2.jpg'
p2187
S'B2NH'
p2188
sS'merge_data/UG7T@3.jpg'
p2189
S'UG7T'
p2190
sS'merge_data/7wje@1.jpg'
p2191
S'7wje'
p2192
sS'merge_data/VSG4@10.jpg'
p2193
S'VSG4'
p2194
sS'merge_data/6vh8@2.jpg'
p2195
S'6vh8'
p2196
sS'merge_data/bxna@2.jpg'
p2197
S'bxna'
p2198
sS'merge_data/SG4r@1.jpg'
p2199
S'SG4r'
p2200
sS'merge_data/DURC@2.jpg'
p2201
S'DURC'
p2202
sS'merge_data/VK8X@4.jpg'
p2203
S'VK8X'
p2204
sS'merge_data/CTPD@1.jpg'
p2205
S'CTPD'
p2206
sS'merge_data/VM8X@2.jpg'
p2207
S'VM8X'
p2208
sS'merge_data/SHDZ@1.jpg'
p2209
S'SHDZ'
p2210
sS'merge_data/5UFB@1.jpg'
p2211
S'5UFB'
p2212
sS'merge_data/VKG4@3.jpg'
p2213
S'VKG4'
p2214
sS'merge_data/D4QM@2.jpg'
p2215
S'D4QM'
p2216
sS'merge_data/QK8X@3.jpg'
p2217
S'QK8X'
p2218
sS'merge_data/7THD@1.jpg'
p2219
S'7THD'
p2220
sS'merge_data/GXUJ@1.jpg'
p2221
S'GXUJ'
p2222
sS'merge_data/XJEV@1.jpg'
p2223
S'XJEV'
p2224
sS'merge_data/EVSD@1.jpg'
p2225
S'EVSD'
p2226
sS'merge_data/NCYV@2.jpg'
p2227
S'NCYV'
p2228
sS'merge_data/Ug7t@2.jpg'
p2229
S'Ug7t'
p2230
sS'merge_data/nj6v@1.jpg'
p2231
S'nj6v'
p2232
sS'merge_data/4TFB@2.jpg'
p2233
S'4TFB'
p2234
sS'merge_data/YUJ7@7.jpg'
p2235
S'YUJ7'
p2236
sS'merge_data/D2RC@6.jpg'
p2237
S'D2RC'
p2238
sS'merge_data/FBTP@3.jpg'
p2239
S'FBTP'
p2240
sS'merge_data/pe2n@1.jpg'
p2241
S'pe2n'
p2242
sS'merge_data/GXTF@5.jpg'
p2243
S'GXTF'
p2244
sS'merge_data/sPDZ@1.jpg'
p2245
S'sPDZ'
p2246
sS'merge_data/YVK7@6.jpg'
p2247
S'YVK7'
p2248
sS'merge_data/WSE5@1.jpg'
p2249
S'WSE5'
p2250
sS'merge_data/NCYM@1.jpg'
p2251
S'NCYM'
p2252
sS'merge_data/XJEW@1.jpg'
p2253
S'XJEW'
p2254
sS'merge_data/H8UR@3.jpg'
p2255
S'H8UR'
p2256
sS'merge_data/RF4T@1.jpg'
p2257
S'RF4T'
p2258
sS'merge_data/E3PD@3.jpg'
p2259
S'E3PD'
p2260
sS'merge_data/D4RM@3.jpg'
p2261
S'D4RM'
p2262
sS'merge_data/b2pd@3.jpg'
p2263
S'b2pd'
p2264
sS'merge_data/sNCZ@2.jpg'
p2265
S'sNCZ'
p2266
sS'merge_data/K8XJ@3.jpg'
p2267
S'K8XJ'
p2268
sS'merge_data/3PDA@1.jpg'
p2269
S'3PDA'
p2270
sS'merge_data/yqbx@1.jpg'
p2271
S'yqbx'
p2272
sS'merge_data/VSG4@9.jpg'
p2273
S'VSG4'
p2274
sS'merge_data/uj7t@2.jpg'
p2275
S'uj7t'
p2276
sS'merge_data/3sea@1.jpg'
p2277
S'3sea'
p2278
sS'merge_data/G5UF@1.jpg'
p2279
S'G5UF'
p2280
sS'merge_data/bspa@2.jpg'
p2281
S'bspa'
p2282
sS'merge_data/BSNA@2.jpg'
p2283
S'BSNA'
p2284
sS'merge_data/YMGX@1.jpg'
p2285
S'YMGX'
p2286
sS'merge_data/GYUJ@3.jpg'
p2287
S'GYUJ'
p2288
sS'merge_data/RN9Y@2.jpg'
p2289
S'RN9Y'
p2290
sS'merge_data/Qb3p@1.jpg'
p2291
S'Qb3p'
p2292
sS'merge_data/XKFW@2.jpg'
p2293
S'XKFW'
p2294
sS'merge_data/5VGC@2.jpg'
p2295
S'5VGC'
p2296
sS'merge_data/PB2N@8.jpg'
p2297
S'PB2N'
p2298
sS'merge_data/2NDZ@4.jpg'
p2299
S'2NDZ'
p2300
sS'merge_data/K7Wj@2.jpg'
p2301
S'K7Wj'
p2302
sS'merge_data/PJZW@5.jpg'
p2303
S'PJZW'
p2304
sS'merge_data/vrc3@1.jpg'
p2305
S'vrc3'
p2306
sS'merge_data/3qea@1.jpg'
p2307
S'3qea'
p2308
sS'merge_data/KAWM@10.jpg'
p2309
S'KAWM'
p2310
sS'merge_data/CZMB@3.jpg'
p2311
S'CZMB'
p2312
sS'merge_data/qb2n@1.jpg'
p2313
S'qb2n'
p2314
sS'merge_data/PD2n@1.jpg'
p2315
S'PD2n'
p2316
sS'merge_data/GDUQ@4.jpg'
p2317
S'GDUQ'
p2318
sS'merge_data/7WH8@2.jpg'
p2319
S'7WH8'
p2320
sS'merge_data/zvm8@2.jpg'
p2321
S'zvm8'
p2322
sS'merge_data/J6SH@2.jpg'
p2323
S'J6SH'
p2324
sS'merge_data/MBYU@2.jpg'
p2325
S'MBYU'
p2326
sS'merge_data/xkaw@1.jpg'
p2327
S'xkaw'
p2328
sS'merge_data/XN9W@5.jpg'
p2329
S'XN9W'
p2330
sS'merge_data/J7WH@4.jpg'
p2331
S'J7WH'
p2332
sS'merge_data/XJFW@1.jpg'
p2333
S'XJFW'
p2334
sS'merge_data/QKBX@1.jpg'
p2335
S'QKBX'
p2336
sS'merge_data/2rd4@1.jpg'
p2337
S'2rd4'
p2338
sS'merge_data/BXNA@7.jpg'
p2339
S'BXNA'
p2340
sS'merge_data/bxTJ@1.jpg'
p2341
S'bxTJ'
p2342
sS'merge_data/AWM9@4.jpg'
p2343
S'AWM9'
p2344
sS'merge_data/FCYP@1.jpg'
p2345
S'FCYP'
p2346
sS'merge_data/eBXN@1.jpg'
p2347
S'eBXN'
p2348
sS'merge_data/bypj@2.jpg'
p2349
S'bypj'
p2350
sS'merge_data/KAWM@9.jpg'
p2351
S'KAWM'
p2352
sS'merge_data/xnHy@2.jpg'
p2353
S'xnHy'
p2354
sS'merge_data/SD4R@10.jpg'
p2355
S'SD4R'
p2356
sS'merge_data/KAWJ@1.jpg'
p2357
S'KAWJ'
p2358
sS'merge_data/H8UR@2.jpg'
p2359
S'H8UR'
p2360
sS'merge_data/FxTH@1.jpg'
p2361
S'FxTH'
p2362
sS'merge_data/MCYP@1.jpg'
p2363
S'MCYP'
p2364
sS'merge_data/xnjz@1.jpg'
p2365
S'xnjz'
p2366
sS'merge_data/vRF4@2.jpg'
p2367
S'vRF4'
p2368
sS'merge_data/pdaw@1.jpg'
p2369
S'pdaw'
p2370
sS'merge_data/PD2R@2.jpg'
p2371
S'PD2R'
p2372
sS'merge_data/yvk7@2.jpg'
p2373
S'yvk7'
p2374
sS'merge_data/BXNJ@2.jpg'
p2375
S'BXNJ'
p2376
sS'merge_data/zmby@1.jpg'
p2377
S'zmby'
p2378
sS'merge_data/KAWM@8.jpg'
p2379
S'KAWM'
p2380
sS'merge_data/PA2N@2.jpg'
p2381
S'PA2N'
p2382
sS'merge_data/RD4Q@7.jpg'
p2383
S'RD4Q'
p2384
sS'merge_data/YVG7@2.jpg'
p2385
S'YVG7'
p2386
sS'merge_data/d4rf@2.jpg'
p2387
S'd4rf'
p2388
sS'merge_data/PE2R@2.jpg'
p2389
S'PE2R'
p2390
sS'merge_data/MBXK@1.jpg'
p2391
S'MBXK'
p2392
sS'merge_data/3PDA@8.jpg'
p2393
S'3PDA'
p2394
sS'merge_data/QE2P@1.jpg'
p2395
S'QE2P'
p2396
sS'merge_data/5SGC@3.jpg'
p2397
S'5SGC'
p2398
sS'merge_data/GCZQ@5.jpg'
p2399
S'GCZQ'
p2400
sS'merge_data/fbyp@1.jpg'
p2401
S'fbyp'
p2402
sS'merge_data/8xje@1.jpg'
p2403
S'8xje'
p2404
sS'merge_data/DuQF@1.jpg'
p2405
S'DuQF'
p2406
sS'merge_data/EBXN@5.jpg'
p2407
S'EBXN'
p2408
sS'merge_data/RCYP@3.jpg'
p2409
S'RCYP'
p2410
sS'merge_data/sgCt@3.jpg'
p2411
S'sgCt'
p2412
sS'merge_data/XTF6@3.jpg'
p2413
S'XTF6'
p2414
sS'merge_data/2RD4@1.jpg'
p2415
S'2RD4'
p2416
sS'merge_data/yug7@2.jpg'
p2417
S'yug7'
p2418
sS'merge_data/EVRG@1.jpg'
p2419
S'EVRG'
p2420
sS'merge_data/JZVH@2.jpg'
p2421
S'JZVH'
p2422
sS'merge_data/h5rg@1.jpg'
p2423
S'h5rg'
p2424
sS'merge_data/F4Te@1.jpg'
p2425
S'F4Te'
p2426
sS'merge_data/F7TH@1.jpg'
p2427
S'F7TH'
p2428
sS'merge_data/f7tp@1.jpg'
p2429
S'f7tp'
p2430
sS'merge_data/UJE3@1.jpg'
p2431
S'UJE3'
p2432
sS'merge_data/bxka@2.jpg'
p2433
S'bxka'
p2434
sS'merge_data/JE3S@2.jpg'
p2435
S'JE3S'
p2436
sS'merge_data/E3Sd@1.jpg'
p2437
S'E3Sd'
p2438
sS'merge_data/JF3S@3.jpg'
p2439
S'JF3S'
p2440
sS'merge_data/rcyp@1.jpg'
p2441
S'rcyp'
p2442
sS'merge_data/M8XK@4.jpg'
p2443
S'M8XK'
p2444
sS'merge_data/YPAZ@3.jpg'
p2445
S'YPAZ'
p2446
sS'merge_data/TJEV@1.jpg'
p2447
S'TJEV'
p2448
sS'merge_data/3pka@2.jpg'
p2449
S'3pka'
p2450
sS'merge_data/xnHy@1.jpg'
p2451
S'xnHy'
p2452
sS'merge_data/WJEV@1.jpg'
p2453
S'WJEV'
p2454
sS'merge_data/bypJ@1.jpg'
p2455
S'bypJ'
p2456
sS'merge_data/M9Yk@1.jpg'
p2457
S'M9Yk'
p2458
sS'merge_data/BtPa@1.jpg'
p2459
S'BtPa'
p2460
sS'merge_data/8UKF@4.jpg'
p2461
S'8UKF'
p2462
sS'merge_data/E2PD@2.jpg'
p2463
S'E2PD'
p2464
sS'merge_data/wmhy@1.jpg'
p2465
S'wmhy'
p2466
sS'merge_data/vg7u@1.jpg'
p2467
S'vg7u'
p2468
sS'merge_data/6sgD@1.jpg'
p2469
S'6sgD'
p2470
sS'merge_data/kfxt@1.jpg'
p2471
S'kfxt'
p2472
sS'merge_data/JZVK@2.jpg'
p2473
S'JZVK'
p2474
sS'merge_data/G4TE@1.jpg'
p2475
S'G4TE'
p2476
sS'merge_data/BXN9@1.jpg'
p2477
S'BXN9'
p2478
sS'merge_data/WM8X@2.jpg'
p2479
S'WM8X'
p2480
sS'merge_data/th5u@1.jpg'
p2481
S'th5u'
p2482
sS'merge_data/YKBX@2.jpg'
p2483
S'YKBX'
p2484
sS'merge_data/WH8U@1.jpg'
p2485
S'WH8U'
p2486
sS'merge_data/GxTH@2.jpg'
p2487
S'GxTH'
p2488
sS'merge_data/XUF6@1.jpg'
p2489
S'XUF6'
p2490
sS'merge_data/RC4Q@3.jpg'
p2491
S'RC4Q'
p2492
sS'merge_data/FBXN@1.jpg'
p2493
S'FBXN'
p2494
sS'merge_data/WSG4@3.jpg'
p2495
S'WSG4'
p2496
sS'merge_data/F4TE@2.jpg'
p2497
S'F4TE'
p2498
sS'merge_data/G4TF@3.jpg'
p2499
S'G4TF'
p2500
sS'merge_data/d4qM@1.jpg'
p2501
S'd4qM'
p2502
sS'merge_data/5RFC@6.jpg'
p2503
S'5RFC'
p2504
sS'merge_data/3Te5@1.jpg'
p2505
S'3Te5'
p2506
sS'merge_data/Sd5r@1.jpg'
p2507
S'Sd5r'
p2508
sS'merge_data/CYQb@1.jpg'
p2509
S'CYQb'
p2510
sS'merge_data/3tea@1.jpg'
p2511
S'3tea'
p2512
sS'merge_data/aZmb@1.jpg'
p2513
S'aZmb'
p2514
sS'merge_data/8VRF@3.jpg'
p2515
S'8VRF'
p2516
sS'merge_data/XJ9W@1.jpg'
p2517
S'XJ9W'
p2518
sS'merge_data/QKAX@4.jpg'
p2519
S'QKAX'
p2520
sS'merge_data/7UJE@1.jpg'
p2521
S'7UJE'
p2522
sS'merge_data/2NJZ@4.jpg'
p2523
S'2NJZ'
p2524
sS'merge_data/uj6s@1.jpg'
p2525
S'uj6s'
p2526
sS'merge_data/2RCZ@1.jpg'
p2527
S'2RCZ'
p2528
sS'merge_data/ZNCY@5.jpg'
p2529
S'ZNCY'
p2530
sS'merge_data/WM8Y@1.jpg'
p2531
S'WM8Y'
p2532
sS'merge_data/6SGD@2.jpg'
p2533
S'6SGD'
p2534
sS'merge_data/RF3T@2.jpg'
p2535
S'RF3T'
p2536
sS'merge_data/MGXU@4.jpg'
p2537
S'MGXU'
p2538
sS'merge_data/GYUJ@2.jpg'
p2539
S'GYUJ'
p2540
sS'merge_data/gczq@1.jpg'
p2541
S'gczq'
p2542
sS'merge_data/EvSG@1.jpg'
p2543
S'EvSG'
p2544
sS'merge_data/TPDZ@1.jpg'
p2545
S'TPDZ'
p2546
sS'merge_data/H8UK@2.jpg'
p2547
S'H8UK'
p2548
sS'merge_data/SPDZ@4.jpg'
p2549
S'SPDZ'
p2550
sS'merge_data/ykgx@1.jpg'
p2551
S'ykgx'
p2552
sS'merge_data/ZRM8@1.jpg'
p2553
S'ZRM8'
p2554
sS'merge_data/PJZW@8.jpg'
p2555
S'PJZW'
p2556
sS'merge_data/XNAW@2.jpg'
p2557
S'XNAW'
p2558
sS'merge_data/8XJ9@2.jpg'
p2559
S'8XJ9'
p2560
sS'merge_data/RFBY@1.jpg'
p2561
S'RFBY'
p2562
sS'merge_data/SGCZ@5.jpg'
p2563
S'SGCZ'
p2564
sS'merge_data/tqe2@2.jpg'
p2565
S'tqe2'
p2566
sS'merge_data/ZRc3@1.jpg'
p2567
S'ZRc3'
p2568
sS'merge_data/eAXN@1.jpg'
p2569
S'eAXN'
p2570
sS'merge_data/E2ND@1.jpg'
p2571
S'E2ND'
p2572
sS'merge_data/qbyp@1.jpg'
p2573
S'qbyp'
p2574
sS'merge_data/J7WH@1.jpg'
p2575
S'J7WH'
p2576
sS'merge_data/wh8v@1.jpg'
p2577
S'wh8v'
p2578
sS'merge_data/MBXP@1.jpg'
p2579
S'MBXP'
p2580
sS'merge_data/asn9@1.jpg'
p2581
S'asn9'
p2582
sS'merge_data/GXUF@2.jpg'
p2583
S'GXUF'
p2584
sS'merge_data/7UJE@5.jpg'
p2585
S'7UJE'
p2586
sS'merge_data/qk7x@1.jpg'
p2587
S'qk7x'
p2588
sS'merge_data/ZNHY@1.jpg'
p2589
S'ZNHY'
p2590
sS'merge_data/7tqe@1.jpg'
p2591
S'7tqe'
p2592
sS'merge_data/F6SG@1.jpg'
p2593
S'F6SG'
p2594
sS'merge_data/uRF3@1.jpg'
p2595
S'uRF3'
p2596
sS'merge_data/8ukf@1.jpg'
p2597
S'8ukf'
p2598
sS'merge_data/F3TE@4.jpg'
p2599
S'F3TE'
p2600
sS'merge_data/EARN@1.jpg'
p2601
S'EARN'
p2602
sS'merge_data/xUJ6@1.jpg'
p2603
S'xUJ6'
p2604
sS'merge_data/RD4Q@2.jpg'
p2605
S'RD4Q'
p2606
sS'merge_data/GYUJ@1.jpg'
p2607
S'GYUJ'
p2608
sS'merge_data/nhyv@1.jpg'
p2609
S'nhyv'
p2610
sS'merge_data/XNH6@3.jpg'
p2611
S'XNH6'
p2612
sS'merge_data/UFBT@1.jpg'
p2613
S'UFBT'
p2614
sS'merge_data/WSH5@2.jpg'
p2615
S'WSH5'
p2616
sS'merge_data/qkax@1.jpg'
p2617
S'qkax'
p2618
sS'merge_data/NDZV@1.jpg'
p2619
S'NDZV'
p2620
sS'merge_data/TEBS@1.jpg'
p2621
S'TEBS'
p2622
sS'merge_data/M9VK@3.jpg'
p2623
S'M9VK'
p2624
sS'merge_data/PB2N@1.jpg'
p2625
S'PB2N'
p2626
sS'merge_data/K8UJ@2.jpg'
p2627
S'K8UJ'
p2628
sS'merge_data/EBSN@3.jpg'
p2629
S'EBSN'
p2630
sS'merge_data/zncy@2.jpg'
p2631
S'zncy'
p2632
sS'merge_data/ARNC@3.jpg'
p2633
S'ARNC'
p2634
sS'merge_data/6vh8@1.jpg'
p2635
S'6vh8'
p2636
sS'merge_data/9YKA@2.jpg'
p2637
S'9YKA'
p2638
sS'merge_data/D4RF@3.jpg'
p2639
S'D4RF'
p2640
sS'merge_data/E3SD@1.jpg'
p2641
S'E3SD'
p2642
sS'merge_data/B2NJ@1.jpg'
p2643
S'B2NJ'
p2644
sS'merge_data/K8uj@1.jpg'
p2645
S'K8uj'
p2646
sS'merge_data/thev@1.jpg'
p2647
S'thev'
p2648
sS'merge_data/JAWH@1.jpg'
p2649
S'JAWH'
p2650
sS'merge_data/BSPD@3.jpg'
p2651
S'BSPD'
p2652
sS'merge_data/KGXT@2.jpg'
p2653
S'KGXT'
p2654
sS'merge_data/KAWM@4.jpg'
p2655
S'KAWM'
p2656
sS'merge_data/VMGX@1.jpg'
p2657
S'VMGX'
p2658
sS'merge_data/PK7W@1.jpg'
p2659
S'PK7W'
p2660
sS'merge_data/nawm@1.jpg'
p2661
S'nawm'
p2662
sS'merge_data/JAWM@6.jpg'
p2663
S'JAWM'
p2664
sS'merge_data/B2ND@1.jpg'
p2665
S'B2ND'
p2666
sS'merge_data/g4tf@1.jpg'
p2667
S'g4tf'
p2668
sS'merge_data/G4QF@2.jpg'
p2669
S'G4QF'
p2670
sS'merge_data/TH6s@1.jpg'
p2671
S'TH6s'
p2672
sS'merge_data/AWNH@3.jpg'
p2673
S'AWNH'
p2674
sS'merge_data/CTQE@1.jpg'
p2675
S'CTQE'
p2676
sS'merge_data/ncyp@1.jpg'
p2677
S'ncyp'
p2678
sS'merge_data/WMG4@1.jpg'
p2679
S'WMG4'
p2680
sS'merge_data/awTH@1.jpg'
p2681
S'awTH'
p2682
sS'merge_data/7UQE@2.jpg'
p2683
S'7UQE'
p2684
sS'merge_data/3SE5@2.jpg'
p2685
S'3SE5'
p2686
sS'merge_data/JF3S@1.jpg'
p2687
S'JF3S'
p2688
sS'merge_data/TQB2@2.jpg'
p2689
S'TQB2'
p2690
sS'merge_data/paxn@2.jpg'
p2691
S'paxn'
p2692
sS'merge_data/ZNCY@3.jpg'
p2693
S'ZNCY'
p2694
sS'merge_data/FCTP@1.jpg'
p2695
S'FCTP'
p2696
sS'merge_data/PJZW@2.jpg'
p2697
S'PJZW'
p2698
sS'merge_data/b2nj@2.jpg'
p2699
S'b2nj'
p2700
sS'merge_data/7TJE@1.jpg'
p2701
S'7TJE'
p2702
sS'merge_data/8UJF@1.jpg'
p2703
S'8UJF'
p2704
sS'merge_data/J9VM@1.jpg'
p2705
S'J9VM'
p2706
sS'merge_data/F3TE@2.jpg'
p2707
S'F3TE'
p2708
sS'merge_data/UK7W@1.jpg'
p2709
S'UK7W'
p2710
sS'merge_data/BSPA@1.jpg'
p2711
S'BSPA'
p2712
sS'merge_data/AWMH@1.jpg'
p2713
S'AWMH'
p2714
sS'merge_data/PAXN@3.jpg'
p2715
S'PAXN'
p2716
sS'merge_data/kawm@1.jpg'
p2717
S'kawm'
p2718
sS'merge_data/gxtf@3.jpg'
p2719
S'gxtf'
p2720
sS'merge_data/Wh9v@1.jpg'
p2721
S'Wh9v'
p2722
sS'merge_data/pkaw@1.jpg'
p2723
S'pkaw'
p2724
sS'merge_data/VSD4@2.jpg'
p2725
S'VSD4'
p2726
sS'merge_data/YUF7@3.jpg'
p2727
S'YUF7'
p2728
sS'merge_data/pdzq@2.jpg'
p2729
S'pdzq'
p2730
sS'merge_data/BXNA@3.jpg'
p2731
S'BXNA'
p2732
sS'merge_data/XN9V@1.jpg'
p2733
S'XN9V'
p2734
sS'merge_data/WM9V@1.jpg'
p2735
S'WM9V'
p2736
sS'merge_data/JEVS@2.jpg'
p2737
S'JEVS'
p2738
sS'merge_data/EARN@3.jpg'
p2739
S'EARN'
p2740
sS'merge_data/UJFW@3.jpg'
p2741
S'UJFW'
p2742
sS'merge_data/vkg4@1.jpg'
p2743
S'vkg4'
p2744
sS'merge_data/2PDZ@1.jpg'
p2745
S'2PDZ'
p2746
sS'merge_data/EARN@2.jpg'
p2747
S'EARN'
p2748
sS'merge_data/FBSN@2.jpg'
p2749
S'FBSN'
p2750
sS'merge_data/J7TH@3.jpg'
p2751
S'J7TH'
p2752
sS'merge_data/K8UJ@3.jpg'
p2753
S'K8UJ'
p2754
sS'merge_data/axnH@1.jpg'
p2755
S'axnH'
p2756
sS'merge_data/M8XK@5.jpg'
p2757
S'M8XK'
p2758
sS'merge_data/JEVS@4.jpg'
p2759
S'JEVS'
p2760
sS'merge_data/RGCY@3.jpg'
p2761
S'RGCY'
p2762
sS'merge_data/ZNCY@4.jpg'
p2763
S'ZNCY'
p2764
sS'merge_data/SG5U@1.jpg'
p2765
S'SG5U'
p2766
sS'merge_data/JF3S@2.jpg'
p2767
S'JF3S'
p2768
sS'merge_data/PDZW@2.jpg'
p2769
S'PDZW'
p2770
sS'merge_data/XTH6@2.jpg'
p2771
S'XTH6'
p2772
sS'merge_data/DZRC@1.jpg'
p2773
S'DZRC'
p2774
sS'merge_data/EVRD@4.jpg'
p2775
S'EVRD'
p2776
sS'merge_data/RCYP@2.jpg'
p2777
S'RCYP'
p2778
sS'merge_data/BSNA@3.jpg'
p2779
S'BSNA'
p2780
sS'merge_data/KAWM@6.jpg'
p2781
S'KAWM'
p2782
sS'merge_data/WHEV@3.jpg'
p2783
S'WHEV'
p2784
sS'merge_data/AWN9@1.jpg'
p2785
S'AWN9'
p2786
sS'merge_data/GCZQ@2.jpg'
p2787
S'GCZQ'
p2788
sS'merge_data/JZWM@1.jpg'
p2789
S'JZWM'
p2790
sS'merge_data/ZQM8@2.jpg'
p2791
S'ZQM8'
p2792
sS'merge_data/5rnc@2.jpg'
p2793
S'5rnc'
p2794
sS'merge_data/JE3S@1.jpg'
p2795
S'JE3S'
p2796
sS'merge_data/NHYV@2.jpg'
p2797
S'NHYV'
p2798
sS'merge_data/kawm@2.jpg'
p2799
S'kawm'
p2800
sS'merge_data/UF6T@6.jpg'
p2801
S'UF6T'
p2802
sS'merge_data/RD4Q@4.jpg'
p2803
S'RD4Q'
p2804
sS'merge_data/PJZV@3.jpg'
p2805
S'PJZV'
p2806
sS'merge_data/HZVG@2.jpg'
p2807
S'HZVG'
p2808
sS'merge_data/ykax@1.jpg'
p2809
S'ykax'
p2810
sS'merge_data/pj6v@1.jpg'
p2811
S'pj6v'
p2812
sS'merge_data/2ncz@2.jpg'
p2813
S'2ncz'
p2814
sS'merge_data/5UfC@1.jpg'
p2815
S'5UfC'
p2816
sS'merge_data/NCZQ@1.jpg'
p2817
S'NCZQ'
p2818
sS'merge_data/8XKF@3.jpg'
p2819
S'8XKF'
p2820
sS'merge_data/WSE5@2.jpg'
p2821
S'WSE5'
p2822
sS'merge_data/5rNC@1.jpg'
p2823
S'5rNC'
p2824
sS'merge_data/rc4q@1.jpg'
p2825
S'rc4q'
p2826
sS'merge_data/YUG7@3.jpg'
p2827
S'YUG7'
p2828
sS'merge_data/F4TE@3.jpg'
p2829
S'F4TE'
p2830
sS'merge_data/YUJ7@2.jpg'
p2831
S'YUJ7'
p2832
sS'merge_data/ypj7@1.jpg'
p2833
S'ypj7'
p2834
sS'merge_data/9YKF@1.jpg'
p2835
S'9YKF'
p2836
sS'merge_data/3SE5@1.jpg'
p2837
S'3SE5'
p2838
sS'merge_data/PB2N@6.jpg'
p2839
S'PB2N'
p2840
sS'merge_data/zVK7@1.jpg'
p2841
S'zVK7'
p2842
sS'merge_data/jfws@2.jpg'
p2843
S'jfws'
p2844
sS'merge_data/EAXN@6.jpg'
p2845
S'EAXN'
p2846
sS'merge_data/te5s@1.jpg'
p2847
S'te5s'
p2848
sS'merge_data/HDUR@8.jpg'
p2849
S'HDUR'
p2850
sS'merge_data/SDUQ@1.jpg'
p2851
S'SDUQ'
p2852
sS'merge_data/C3PJ@1.jpg'
p2853
S'C3PJ'
p2854
sS'merge_data/b2pj@1.jpg'
p2855
S'b2pj'
p2856
sS'merge_data/H9VR@1.jpg'
p2857
S'H9VR'
p2858
sS'merge_data/ujfw@1.jpg'
p2859
S'ujfw'
p2860
sS'merge_data/6VG7@1.jpg'
p2861
S'6VG7'
p2862
sS'merge_data/HZVK@1.jpg'
p2863
S'HZVK'
p2864
sS'merge_data/NH6V@1.jpg'
p2865
S'NH6V'
p2866
sS'merge_data/VMGX@2.jpg'
p2867
S'VMGX'
p2868
sS'merge_data/MBYP@1.jpg'
p2869
S'MBYP'
p2870
sS'merge_data/QEBX@1.jpg'
p2871
S'QEBX'
p2872
sS'merge_data/UG7T@5.jpg'
p2873
S'UG7T'
p2874
sS'merge_data/EVRC@2.jpg'
p2875
S'EVRC'
p2876
sS'merge_data/9VSG@1.jpg'
p2877
S'9VSG'
p2878
sS'merge_data/RCZQ@4.jpg'
p2879
S'RCZQ'
p2880
sS'merge_data/VK7X@1.jpg'
p2881
S'VK7X'
p2882
sS'merge_data/E2RD@4.jpg'
p2883
S'E2RD'
p2884
sS'merge_data/hyvk@1.jpg'
p2885
S'hyvk'
p2886
sS'merge_data/XJ9W@4.jpg'
p2887
S'XJ9W'
p2888
sS'merge_data/axTH@2.jpg'
p2889
S'axTH'
p2890
sS'merge_data/c3qK@1.jpg'
p2891
S'c3qK'
p2892
sS'merge_data/2SDZ@1.jpg'
p2893
S'2SDZ'
p2894
sS'merge_data/UJFW@5.jpg'
p2895
S'UJFW'
p2896
sS'merge_data/NAZM@3.jpg'
p2897
S'NAZM'
p2898
sS'merge_data/g5uf@2.jpg'
p2899
S'g5uf'
p2900
sS'merge_data/6SND@1.jpg'
p2901
S'6SND'
p2902
sS'merge_data/RF3S@5.jpg'
p2903
S'RF3S'
p2904
sS'merge_data/MG5U@3.jpg'
p2905
S'MG5U'
p2906
sS'merge_data/tfbs@1.jpg'
p2907
S'tfbs'
p2908
sS'merge_data/KFWT@1.jpg'
p2909
S'KFWT'
p2910
sS'merge_data/HEVR@1.jpg'
p2911
S'HEVR'
p2912
sS'merge_data/HDZQ@1.jpg'
p2913
S'HDZQ'
p2914
sS'merge_data/qk8x@2.jpg'
p2915
S'qk8x'
p2916
sS'merge_data/zvh8@1.jpg'
p2917
S'zvh8'
p2918
sS'merge_data/PE2R@1.jpg'
p2919
S'PE2R'
p2920
sS'merge_data/HDUR@6.jpg'
p2921
S'HDUR'
p2922
sS'merge_data/9wmg@2.jpg'
p2923
S'9wmg'
p2924
sS'merge_data/DZQM@2.jpg'
p2925
S'DZQM'
p2926
sS'merge_data/DuRc@1.jpg'
p2927
S'DuRc'
p2928
sS'merge_data/NJ6V@2.jpg'
p2929
S'NJ6V'
p2930
sS'merge_data/awsg@1.jpg'
p2931
S'awsg'
p2932
sS'merge_data/kaxn@2.jpg'
p2933
S'kaxn'
p2934
sS'merge_data/NCYV@1.jpg'
p2935
S'NCYV'
p2936
sS'merge_data/ebsn@1.jpg'
p2937
S'ebsn'
p2938
sS'merge_data/GCTP@1.jpg'
p2939
S'GCTP'
p2940
sS'merge_data/SNDZ@1.jpg'
p2941
S'SNDZ'
p2942
sS'merge_data/wmH5@1.jpg'
p2943
S'wmH5'
p2944
sS'merge_data/TPE2@2.jpg'
p2945
S'TPE2'
p2946
sS'merge_data/6WHD@1.jpg'
p2947
S'6WHD'
p2948
sS'merge_data/TE6S@1.jpg'
p2949
S'TE6S'
p2950
sS'merge_data/H6VG@1.jpg'
p2951
S'H6VG'
p2952
sS'merge_data/ZQB3@1.jpg'
p2953
S'ZQB3'
p2954
sS'merge_data/4UFB@1.jpg'
p2955
S'4UFB'
p2956
sS'merge_data/CYPB@2.jpg'
p2957
S'CYPB'
p2958
sS'merge_data/WTH5@3.jpg'
p2959
S'WTH5'
p2960
sS'merge_data/PB2N@9.jpg'
p2961
S'PB2N'
p2962
sS'merge_data/F3PE@1.jpg'
p2963
S'F3PE'
p2964
sS'merge_data/kgxt@1.jpg'
p2965
S'kgxt'
p2966
sS'merge_data/sd4r@3.jpg'
p2967
S'sd4r'
p2968
sS'merge_data/N9Ym@1.jpg'
p2969
S'N9Ym'
p2970
sS'merge_data/rczq@1.jpg'
p2971
S'rczq'
p2972
sS'merge_data/f3se@1.jpg'
p2973
S'f3se'
p2974
sS'merge_data/VSG4@1.jpg'
p2975
S'VSG4'
p2976
sS'merge_data/vkf4@1.jpg'
p2977
S'vkf4'
p2978
sS'merge_data/YVK7@5.jpg'
p2979
S'YVK7'
p2980
sS'merge_data/Se5r@2.jpg'
p2981
S'Se5r'
p2982
sS'merge_data/YPJ7@2.jpg'
p2983
S'YPJ7'
p2984
sS'merge_data/3PEA@2.jpg'
p2985
S'3PEA'
p2986
sS'merge_data/EVSD@2.jpg'
p2987
S'EVSD'
p2988
sS'merge_data/BYPA@1.jpg'
p2989
S'BYPA'
p2990
sS'merge_data/D2RC@5.jpg'
p2991
S'D2RC'
p2992
sS'merge_data/PAZN@2.jpg'
p2993
S'PAZN'
p2994
sS'merge_data/PA2N@1.jpg'
p2995
S'PA2N'
p2996
sS'merge_data/JZWH@4.jpg'
p2997
S'JZWH'
p2998
sS'merge_data/2PJZ@4.jpg'
p2999
S'2PJZ'
p3000
sS'merge_data/SNCZ@3.jpg'
p3001
S'SNCZ'
p3002
sS'merge_data/JAWH@2.jpg'
p3003
S'JAWH'
p3004
sS'merge_data/ZVK8@1.jpg'
p3005
S'ZVK8'
p3006
sS'merge_data/EVRD@2.jpg'
p3007
S'EVRD'
p3008
sS'merge_data/rM9Y@1.jpg'
p3009
S'rM9Y'
p3010
sS'merge_data/RD4Q@5.jpg'
p3011
S'RD4Q'
p3012
sS'merge_data/XTJ6@2.jpg'
p3013
S'XTJ6'
p3014
sS'merge_data/HYUJ@1.jpg'
p3015
S'HYUJ'
p3016
sS'merge_data/RC4Q@2.jpg'
p3017
S'RC4Q'
p3018
sS'merge_data/SNAZ@1.jpg'
p3019
S'SNAZ'
p3020
sS'merge_data/E2Sd@1.jpg'
p3021
S'E2Sd'
p3022
sS'merge_data/EBXN@4.jpg'
p3023
S'EBXN'
p3024
sS'merge_data/TPD2@5.jpg'
p3025
S'TPD2'
p3026
sS'merge_data/pdAW@1.jpg'
p3027
S'pdAW'
p3028
sS'merge_data/BXUJ@3.jpg'
p3029
S'BXUJ'
p3030
sS'merge_data/ZNCY@2.jpg'
p3031
S'ZNCY'
p3032
sS'merge_data/UJ6W@2.jpg'
p3033
S'UJ6W'
p3034
sS'merge_data/4qfb@1.jpg'
p3035
S'4qfb'
p3036
sS'merge_data/NAWM@6.jpg'
p3037
S'NAWM'
p3038
sS'merge_data/EAXN@5.jpg'
p3039
S'EAXN'
p3040
sS'merge_data/ypka@1.jpg'
p3041
S'ypka'
p3042
sS'merge_data/vm8u@1.jpg'
p3043
S'vm8u'
p3044
sS'merge_data/H8UR@1.jpg'
p3045
S'H8UR'
p3046
sS'merge_data/VK8U@1.jpg'
p3047
S'VK8U'
p3048
sS'merge_data/XNH6@2.jpg'
p3049
S'XNH6'
p3050
sS'merge_data/rf4q@1.jpg'
p3051
S'rf4q'
p3052
sS'merge_data/wSG5@1.jpg'
p3053
S'wSG5'
p3054
sS'merge_data/tpd2@2.jpg'
p3055
S'tpd2'
p3056
sS'merge_data/E2RD@2.jpg'
p3057
S'E2RD'
p3058
sS'merge_data/zqk8@1.jpg'
p3059
S'zqk8'
p3060
sS'merge_data/bypj@1.jpg'
p3061
S'bypj'
p3062
sS'merge_data/dzqM@1.jpg'
p3063
S'dzqM'
p3064
sS'merge_data/XKFW@1.jpg'
p3065
S'XKFW'
p3066
sS'merge_data/2RD4@5.jpg'
p3067
S'2RD4'
p3068
sS'merge_data/YPAX@2.jpg'
p3069
S'YPAX'
p3070
sS'merge_data/GCZQ@4.jpg'
p3071
S'GCZQ'
p3072
sS'merge_data/uqe3@2.jpg'
p3073
S'uqe3'
p3074
sS'merge_data/AWTH@3.jpg'
p3075
S'AWTH'
p3076
sS'merge_data/VKF3@1.jpg'
p3077
S'VKF3'
p3078
sS'merge_data/YPJA@1.jpg'
p3079
S'YPJA'
p3080
sS'merge_data/gCZQ@1.jpg'
p3081
S'gCZQ'
p3082
sS'merge_data/3QEA@2.jpg'
p3083
S'3QEA'
p3084
sS'merge_data/uQE2@1.jpg'
p3085
S'uQE2'
p3086
sS'merge_data/G4RF@2.jpg'
p3087
S'G4RF'
p3088
sS'merge_data/BXJA@1.jpg'
p3089
S'BXJA'
p3090
sS'merge_data/SPAZ@1.jpg'
p3091
S'SPAZ'
p3092
sS'merge_data/5Uf7@1.jpg'
p3093
S'5Uf7'
p3094
sS'merge_data/zqMB@1.jpg'
p3095
S'zqMB'
p3096
sS'merge_data/DZRM@1.jpg'
p3097
S'DZRM'
p3098
sS'merge_data/7TQE@2.jpg'
p3099
S'7TQE'
p3100
sS'merge_data/5SGC@4.jpg'
p3101
S'5SGC'
p3102
sS'merge_data/ZQb3@1.jpg'
p3103
S'ZQb3'
p3104
sS'merge_data/CYMB@1.jpg'
p3105
S'CYMB'
p3106
sS'merge_data/rfBX@1.jpg'
p3107
S'rfBX'
p3108
sS'merge_data/8xkf@1.jpg'
p3109
S'8xkf'
p3110
sS'merge_data/B2PD@1.jpg'
p3111
S'B2PD'
p3112
sS'merge_data/SD5R@2.jpg'
p3113
S'SD5R'
p3114
sS'merge_data/kbxn@1.jpg'
p3115
S'kbxn'
p3116
sS'merge_data/SNCY@1.jpg'
p3117
S'SNCY'
p3118
sS'merge_data/easn@1.jpg'
p3119
S'easn'
p3120
sS'merge_data/SD4R@6.jpg'
p3121
S'SD4R'
p3122
sS'merge_data/th5s@2.jpg'
p3123
S'th5s'
p3124
sS'merge_data/yvk7@1.jpg'
p3125
S'yvk7'
p3126
sS'merge_data/qear@2.jpg'
p3127
S'qear'
p3128
sS'merge_data/3pka@1.jpg'
p3129
S'3pka'
p3130
sS'merge_data/vk7t@1.jpg'
p3131
S'vk7t'
p3132
sS'merge_data/4qea@1.jpg'
p3133
S'4qea'
p3134
sS'merge_data/DuRF@1.jpg'
p3135
S'DuRF'
p3136
sS'merge_data/Ug7t@1.jpg'
p3137
S'Ug7t'
p3138
sS'merge_data/N9YK@1.jpg'
p3139
S'N9YK'
p3140
sS'merge_data/DVRF@1.jpg'
p3141
S'DVRF'
p3142
sS'merge_data/8VKF@1.jpg'
p3143
S'8VKF'
p3144
sS'merge_data/6SNC@1.jpg'
p3145
S'6SNC'
p3146
sS'merge_data/3PDZ@1.jpg'
p3147
S'3PDZ'
p3148
sS'merge_data/pawn@1.jpg'
p3149
S'pawn'
p3150
sS'merge_data/vSd4@1.jpg'
p3151
S'vSd4'
p3152
sS'merge_data/PD2n@2.jpg'
p3153
S'PD2n'
p3154
sS'merge_data/PAXN@4.jpg'
p3155
S'PAXN'
p3156
sS'merge_data/ujf3@3.jpg'
p3157
S'ujf3'
p3158
sS'merge_data/byuj@1.jpg'
p3159
S'byuj'
p3160
sS'merge_data/xTJ6@1.jpg'
p3161
S'xTJ6'
p3162
sS'merge_data/H6Vg@1.jpg'
p3163
S'H6Vg'
p3164
sS'merge_data/PJAW@3.jpg'
p3165
S'PJAW'
p3166
sS'merge_data/E2RC@4.jpg'
p3167
S'E2RC'
p3168
sS'merge_data/sNCZ@1.jpg'
p3169
S'sNCZ'
p3170
sS'merge_data/NCZM@1.jpg'
p3171
S'NCZM'
p3172
sS'merge_data/KBXN@1.jpg'
p3173
S'KBXN'
p3174
sS'merge_data/NCZQ@2.jpg'
p3175
S'NCZQ'
p3176
sS'merge_data/MCYP@2.jpg'
p3177
S'MCYP'
p3178
sS'merge_data/AWH8@1.jpg'
p3179
S'AWH8'
p3180
sS'merge_data/J6VG@1.jpg'
p3181
S'J6VG'
p3182
sS'merge_data/qfBs@1.jpg'
p3183
S'qfBs'
p3184
sS'merge_data/byka@1.jpg'
p3185
S'byka'
p3186
sS'merge_data/2rc3@1.jpg'
p3187
S'2rc3'
p3188
sS'merge_data/PJZW@3.jpg'
p3189
S'PJZW'
p3190
sS'merge_data/wm8x@1.jpg'
p3191
S'wm8x'
p3192
sS'merge_data/HDUQ@3.jpg'
p3193
S'HDUQ'
p3194
sS'merge_data/6shd@1.jpg'
p3195
S'6shd'
p3196
sS'merge_data/vhdu@2.jpg'
p3197
S'vhdu'
p3198
sS'merge_data/hyvg@2.jpg'
p3199
S'hyvg'
p3200
sS'merge_data/E5RG@4.jpg'
p3201
S'E5RG'
p3202
sS'merge_data/VG7U@5.jpg'
p3203
S'VG7U'
p3204
sS'merge_data/5Ug7@1.jpg'
p3205
S'5Ug7'
p3206
sS'merge_data/pdar@1.jpg'
p3207
S'pdar'
p3208
sS'merge_data/AWN9@2.jpg'
p3209
S'AWN9'
p3210
sS'merge_data/VK7U@3.jpg'
p3211
S'VK7U'
p3212
sS'merge_data/xj9w@1.jpg'
p3213
S'xj9w'
p3214
sS'merge_data/M8XJ@1.jpg'
p3215
S'M8XJ'
p3216
sS'merge_data/DUQB@1.jpg'
p3217
S'DUQB'
p3218
sS'merge_data/6snd@2.jpg'
p3219
S'6snd'
p3220
sS'merge_data/8uqf@1.jpg'
p3221
S'8uqf'
p3222
sS'merge_data/dzqb@1.jpg'
p3223
S'dzqb'
p3224
sS'merge_data/RFBT@1.jpg'
p3225
S'RFBT'
p3226
sS'merge_data/RF3T@1.jpg'
p3227
S'RF3T'
p3228
sS'merge_data/bxpa@2.jpg'
p3229
S'bxpa'
p3230
sS'merge_data/WTH5@2.jpg'
p3231
S'WTH5'
p3232
sS'merge_data/XJAW@1.jpg'
p3233
S'XJAW'
p3234
sS'merge_data/TPA2@1.jpg'
p3235
S'TPA2'
p3236
sS'merge_data/YMBX@2.jpg'
p3237
S'YMBX'
p3238
sS'merge_data/N9Ym@2.jpg'
p3239
S'N9Ym'
p3240
sS'merge_data/KF4T@3.jpg'
p3241
S'KF4T'
p3242
sS'merge_data/MBXN@2.jpg'
p3243
S'MBXN'
p3244
sS'merge_data/WSG4@1.jpg'
p3245
S'WSG4'
p3246
sS'merge_data/F6SG@2.jpg'
p3247
S'F6SG'
p3248
sS'merge_data/7WJ9@2.jpg'
p3249
S'7WJ9'
p3250
sS'merge_data/XN9Y@1.jpg'
p3251
S'XN9Y'
p3252
sS'merge_data/BYPa@1.jpg'
p3253
S'BYPa'
p3254
sS'merge_data/DZQM@1.jpg'
p3255
S'DZQM'
p3256
sS'merge_data/nhzv@1.jpg'
p3257
S'nhzv'
p3258
sS'merge_data/bxnh@1.jpg'
p3259
S'bxnh'
p3260
sS'merge_data/NJZV@2.jpg'
p3261
S'NJZV'
p3262
sS'merge_data/7UJE@7.jpg'
p3263
S'7UJE'
p3264
sS'merge_data/ZQK8@1.jpg'
p3265
S'ZQK8'
p3266
sS'merge_data/PJAW@2.jpg'
p3267
S'PJAW'
p3268
sS'merge_data/BSPD@2.jpg'
p3269
S'BSPD'
p3270
sS'merge_data/PJZV@2.jpg'
p3271
S'PJZV'
p3272
sS'merge_data/pdzn@1.jpg'
p3273
S'pdzn'
p3274
sS'merge_data/MBYK@1.jpg'
p3275
S'MBYK'
p3276
sS'merge_data/9WMG@2.jpg'
p3277
S'9WMG'
p3278
sS'merge_data/Qbyp@1.jpg'
p3279
S'Qbyp'
p3280
sS'merge_data/G7UQ@1.jpg'
p3281
S'G7UQ'
p3282
sS'merge_data/RNCY@4.jpg'
p3283
S'RNCY'
p3284
sS'merge_data/Xkaw@1.jpg'
p3285
S'Xkaw'
p3286
sS'merge_data/9yka@1.jpg'
p3287
S'9yka'
p3288
sS'merge_data/CZMB@2.jpg'
p3289
S'CZMB'
p3290
sS'merge_data/armb@1.jpg'
p3291
S'armb'
p3292
sS'merge_data/8xja@1.jpg'
p3293
S'8xja'
p3294
sS'merge_data/Pb2n@1.jpg'
p3295
S'Pb2n'
p3296
sS'merge_data/ZRCY@2.jpg'
p3297
S'ZRCY'
p3298
sS'merge_data/BXUJ@4.jpg'
p3299
S'BXUJ'
p3300
sS'merge_data/PDAW@3.jpg'
p3301
S'PDAW'
p3302
sS'merge_data/KGXT@4.jpg'
p3303
S'KGXT'
p3304
sS'merge_data/F4TE@1.jpg'
p3305
S'F4TE'
p3306
sS'merge_data/PJZW@4.jpg'
p3307
S'PJZW'
p3308
sS'merge_data/KFWT@2.jpg'
p3309
S'KFWT'
p3310
sS'merge_data/8xka@1.jpg'
p3311
S'8xka'
p3312
sS'merge_data/HDVR@3.jpg'
p3313
S'HDVR'
p3314
sS'merge_data/E2PD@1.jpg'
p3315
S'E2PD'
p3316
sS'merge_data/bypj@4.jpg'
p3317
S'bypj'
p3318
sS'merge_data/bxna@4.jpg'
p3319
S'bxna'
p3320
sS'merge_data/E2SD@2.jpg'
p3321
S'E2SD'
p3322
sS'merge_data/9YKA@4.jpg'
p3323
S'9YKA'
p3324
sS'merge_data/CTPA@1.jpg'
p3325
S'CTPA'
p3326
sS'merge_data/XNJZ@4.jpg'
p3327
S'XNJZ'
p3328
sS'merge_data/czvk@1.jpg'
p3329
S'czvk'
p3330
sS'merge_data/RC3Q@1.jpg'
p3331
S'RC3Q'
p3332
sS'merge_data/eaxn@1.jpg'
p3333
S'eaxn'
p3334
sS'merge_data/G7UJ@2.jpg'
p3335
S'G7UJ'
p3336
sS'merge_data/WH8U@2.jpg'
p3337
S'WH8U'
p3338
sS'merge_data/M9YK@1.jpg'
p3339
S'M9YK'
p3340
sS'merge_data/xTe6@1.jpg'
p3341
S'xTe6'
p3342
sS'merge_data/tfbs@2.jpg'
p3343
S'tfbs'
p3344
sS'merge_data/G7TQ@1.jpg'
p3345
S'G7TQ'
p3346
sS'merge_data/m8xk@1.jpg'
p3347
S'm8xk'
p3348
sS'merge_data/3PDA@7.jpg'
p3349
S'3PDA'
p3350
sS'merge_data/2sdz@1.jpg'
p3351
S'2sdz'
p3352
sS'merge_data/YMBX@1.jpg'
p3353
S'YMBX'
p3354
sS'merge_data/H8UQ@1.jpg'
p3355
S'H8UQ'
p3356
sS'merge_data/VK7T@1.jpg'
p3357
S'VK7T'
p3358
sS'merge_data/E2RD@5.jpg'
p3359
S'E2RD'
p3360
sS'merge_data/ZQMB@1.jpg'
p3361
S'ZQMB'
p3362
sS'merge_data/bxna@1.jpg'
p3363
S'bxna'
p3364
sS'merge_data/ZQcy@1.jpg'
p3365
S'ZQcy'
p3366
sS'merge_data/dzmc@1.jpg'
p3367
S'dzmc'
p3368
sS'merge_data/URF3@2.jpg'
p3369
S'URF3'
p3370
sS'merge_data/kf4t@1.jpg'
p3371
S'kf4t'
p3372
sS'merge_data/5RFC@3.jpg'
p3373
S'5RFC'
p3374
sS'merge_data/mhyu@1.jpg'
p3375
S'mhyu'
p3376
sS'merge_data/SPDZ@9.jpg'
p3377
S'SPDZ'
p3378
sS'merge_data/JZWM@2.jpg'
p3379
S'JZWM'
p3380
sS'merge_data/pawn@2.jpg'
p3381
S'pawn'
p3382
sS'merge_data/FBTP@2.jpg'
p3383
S'FBTP'
p3384
sS'merge_data/XJ9W@3.jpg'
p3385
S'XJ9W'
p3386
sS'merge_data/SPDZ@7.jpg'
p3387
S'SPDZ'
p3388
sS'merge_data/dvrc@1.jpg'
p3389
S'dvrc'
p3390
sS'merge_data/mbxk@1.jpg'
p3391
S'mbxk'
p3392
sS'merge_data/uf6t@2.jpg'
p3393
S'uf6t'
p3394
sS'merge_data/d2rc@1.jpg'
p3395
S'd2rc'
p3396
sS'merge_data/WJ9V@2.jpg'
p3397
S'WJ9V'
p3398
sS'merge_data/XKAW@1.jpg'
p3399
S'XKAW'
p3400
sS'merge_data/THDV@1.jpg'
p3401
S'THDV'
p3402
sS'merge_data/ypbx@1.jpg'
p3403
S'ypbx'
p3404
sS'merge_data/kaxT@1.jpg'
p3405
S'kaxT'
p3406
sS'merge_data/VH8U@4.jpg'
p3407
S'VH8U'
p3408
sS'merge_data/6SGD@4.jpg'
p3409
S'6SGD'
p3410
sS'merge_data/mGyU@1.jpg'
p3411
S'mGyU'
p3412
sS'merge_data/RCZQ@5.jpg'
p3413
S'RCZQ'
p3414
sS'merge_data/5RGC@2.jpg'
p3415
S'5RGC'
p3416
sS'merge_data/ypaw@1.jpg'
p3417
S'ypaw'
p3418
sS'merge_data/NJ6V@3.jpg'
p3419
S'NJ6V'
p3420
sS'merge_data/MG5U@2.jpg'
p3421
S'MG5U'
p3422
sS'merge_data/XN9Z@1.jpg'
p3423
S'XN9Z'
p3424
sS'merge_data/jf3s@1.jpg'
p3425
S'jf3s'
p3426
sS'merge_data/XNAZ@3.jpg'
p3427
S'XNAZ'
p3428
sS'merge_data/4QKA@1.jpg'
p3429
S'4QKA'
p3430
sS'merge_data/RNCY@2.jpg'
p3431
S'RNCY'
p3432
sS'merge_data/eArN@1.jpg'
p3433
S'eArN'
p3434
sS'merge_data/UG7T@1.jpg'
p3435
S'UG7T'
p3436
sS'merge_data/9vsg@1.jpg'
p3437
S'9vsg'
p3438
sS'merge_data/bypa@1.jpg'
p3439
S'bypa'
p3440
sS'merge_data/CYKA@1.jpg'
p3441
S'CYKA'
p3442
sS'merge_data/UF7T@3.jpg'
p3443
S'UF7T'
p3444
sS'merge_data/9WSG@2.jpg'
p3445
S'9WSG'
p3446
sS'merge_data/9ymg@1.jpg'
p3447
S'9ymg'
p3448
sS'merge_data/sg5r@3.jpg'
p3449
S'sg5r'
p3450
sS'merge_data/QB3P@1.jpg'
p3451
S'QB3P'
p3452
sS'merge_data/h8vk@2.jpg'
p3453
S'h8vk'
p3454
sS'merge_data/8VKF@4.jpg'
p3455
S'8VKF'
p3456
sS'merge_data/CZQK@1.jpg'
p3457
S'CZQK'
p3458
sS'merge_data/F6SH@1.jpg'
p3459
S'F6SH'
p3460
sS'merge_data/SG5U@4.jpg'
p3461
S'SG5U'
p3462
sS'merge_data/teas@1.jpg'
p3463
S'teas'
p3464
sS'merge_data/YKAW@1.jpg'
p3465
S'YKAW'
p3466
sS'merge_data/3SDA@1.jpg'
p3467
S'3SDA'
p3468
sS'merge_data/UJ7T@3.jpg'
p3469
S'UJ7T'
p3470
sS'merge_data/ypk7@1.jpg'
p3471
S'ypk7'
p3472
sS'merge_data/vh8u@1.jpg'
p3473
S'vh8u'
p3474
sS'merge_data/XTH5@1.jpg'
p3475
S'XTH5'
p3476
sS'merge_data/NHYU@1.jpg'
p3477
S'NHYU'
p3478
sS'merge_data/qcyp@1.jpg'
p3479
S'qcyp'
p3480
sS'merge_data/XPAW@2.jpg'
p3481
S'XPAW'
p3482
sS'merge_data/N9ZM@2.jpg'
p3483
S'N9ZM'
p3484
sS'merge_data/axTH@1.jpg'
p3485
S'axTH'
p3486
sS'merge_data/PD2N@1.jpg'
p3487
S'PD2N'
p3488
sS'merge_data/6VHD@2.jpg'
p3489
S'6VHD'
p3490
sS'merge_data/MBYk@1.jpg'
p3491
S'MBYk'
p3492
sS'merge_data/ujF3@1.jpg'
p3493
S'ujF3'
p3494
sS'merge_data/QFBX@1.jpg'
p3495
S'QFBX'
p3496
sS'merge_data/uk7w@1.jpg'
p3497
S'uk7w'
p3498
sS'merge_data/SEAR@2.jpg'
p3499
S'SEAR'
p3500
sS'merge_data/8UJF@4.jpg'
p3501
S'8UJF'
p3502
sS'merge_data/aZnH@1.jpg'
p3503
S'aZnH'
p3504
sS'merge_data/Te6s@1.jpg'
p3505
S'Te6s'
p3506
sS'merge_data/YUF6@2.jpg'
p3507
S'YUF6'
p3508
sS'merge_data/YUJ7@8.jpg'
p3509
S'YUJ7'
p3510
sS'merge_data/DVRF@2.jpg'
p3511
S'DVRF'
p3512
sS'merge_data/b2nj@1.jpg'
p3513
S'b2nj'
p3514
sS'merge_data/3PJZ@1.jpg'
p3515
S'3PJZ'
p3516
sS'merge_data/8xj9@1.jpg'
p3517
S'8xj9'
p3518
sS'merge_data/2rdz@1.jpg'
p3519
S'2rdz'
p3520
sS'merge_data/NHYV@1.jpg'
p3521
S'NHYV'
p3522
sS'merge_data/BXUJ@1.jpg'
p3523
S'BXUJ'
p3524
sS'merge_data/XJFW@3.jpg'
p3525
S'XJFW'
p3526
sS'merge_data/sgCt@1.jpg'
p3527
S'sgCt'
p3528
sS'merge_data/9VMG@2.jpg'
p3529
S'9VMG'
p3530
sS'merge_data/UKF3@1.jpg'
p3531
S'UKF3'
p3532
sS'merge_data/fBsN@1.jpg'
p3533
S'fBsN'
p3534
sS'merge_data/RMCY@1.jpg'
p3535
S'RMCY'
p3536
sS'merge_data/xpJ6@1.jpg'
p3537
S'xpJ6'
p3538
sS'merge_data/RDZQ@1.jpg'
p3539
S'RDZQ'
p3540
sS'merge_data/6VGD@1.jpg'
p3541
S'6VGD'
p3542
sS'merge_data/JAWM@3.jpg'
p3543
S'JAWM'
p3544
sS'merge_data/EAXN@4.jpg'
p3545
S'EAXN'
p3546
sS'merge_data/xtj6@1.jpg'
p3547
S'xtj6'
p3548
sS'merge_data/qkbx@1.jpg'
p3549
S'qkbx'
p3550
sS'merge_data/TQE2@1.jpg'
p3551
S'TQE2'
p3552
sS'merge_data/gyuf@1.jpg'
p3553
S'gyuf'
p3554
sS'merge_data/TPB2@2.jpg'
p3555
S'TPB2'
p3556
sS'merge_data/f3te@1.jpg'
p3557
S'f3te'
p3558
sS'merge_data/6VGC@2.jpg'
p3559
S'6VGC'
p3560
sS'merge_data/VK7W@1.jpg'
p3561
S'VK7W'
p3562
sS'merge_data/YPB2@2.jpg'
p3563
S'YPB2'
p3564
sS'merge_data/mbxp@1.jpg'
p3565
S'mbxp'
p3566
sS'merge_data/8XKF@1.jpg'
p3567
S'8XKF'
p3568
sS'merge_data/e3pd@1.jpg'
p3569
S'e3pd'
p3570
sS'merge_data/KFWT@6.jpg'
p3571
S'KFWT'
p3572
sS'merge_data/tpd2@3.jpg'
p3573
S'tpd2'
p3574
sS'merge_data/rd4q@1.jpg'
p3575
S'rd4q'
p3576
sS'merge_data/F3TE@3.jpg'
p3577
S'F3TE'
p3578
sS'merge_data/VH8U@2.jpg'
p3579
S'VH8U'
p3580
sS'merge_data/D2RC@7.jpg'
p3581
S'D2RC'
p3582
sS'merge_data/WSH5@1.jpg'
p3583
S'WSH5'
p3584
sS'merge_data/awTH@3.jpg'
p3585
S'awTH'
p3586
sS'merge_data/VMG4@1.jpg'
p3587
S'VMG4'
p3588
sS'merge_data/THD2@4.jpg'
p3589
S'THD2'
p3590
sS'merge_data/tpa2@4.jpg'
p3591
S'tpa2'
p3592
sS'merge_data/BXNA@9.jpg'
p3593
S'BXNA'
p3594
sS'merge_data/YPa2@1.jpg'
p3595
S'YPa2'
p3596
sS'merge_data/FWTH@1.jpg'
p3597
S'FWTH'
p3598
sS'merge_data/SG5R@2.jpg'
p3599
S'SG5R'
p3600
sS'merge_data/D4RM@4.jpg'
p3601
S'D4RM'
p3602
sS'merge_data/ncym@1.jpg'
p3603
S'ncym'
p3604
sS'merge_data/6VH8@2.jpg'
p3605
S'6VH8'
p3606
sS'merge_data/TE5S@2.jpg'
p3607
S'TE5S'
p3608
sS'merge_data/DUQC@1.jpg'
p3609
S'DUQC'
p3610
sS'merge_data/SG5U@5.jpg'
p3611
S'SG5U'
p3612
sS'merge_data/UQF3@1.jpg'
p3613
S'UQF3'
p3614
sS'merge_data/QK8X@1.jpg'
p3615
S'QK8X'
p3616
sS'merge_data/gxtf@1.jpg'
p3617
S'gxtf'
p3618
sS'merge_data/wth5@3.jpg'
p3619
S'wth5'
p3620
sS'merge_data/8ujF@1.jpg'
p3621
S'8ujF'
p3622
sS'merge_data/EVRC@1.jpg'
p3623
S'EVRC'
p3624
sS'merge_data/QE3P@1.jpg'
p3625
S'QE3P'
p3626
sS'merge_data/uj6w@1.jpg'
p3627
S'uj6w'
p3628
sS'merge_data/XTH6@3.jpg'
p3629
S'XTH6'
p3630
sS'merge_data/9ykg@1.jpg'
p3631
S'9ykg'
p3632
sS'merge_data/CZQb@1.jpg'
p3633
S'CZQb'
p3634
sS'merge_data/BSPD@1.jpg'
p3635
S'BSPD'
p3636
sS'merge_data/SPDZ@5.jpg'
p3637
S'SPDZ'
p3638
sS'merge_data/4RMB@2.jpg'
p3639
S'4RMB'
p3640
sS'merge_data/GCZQ@1.jpg'
p3641
S'GCZQ'
p3642
sS'merge_data/J6SH@1.jpg'
p3643
S'J6SH'
p3644
sS'merge_data/qc3p@1.jpg'
p3645
S'qc3p'
p3646
sS'merge_data/HYVK@1.jpg'
p3647
S'HYVK'
p3648
sS'merge_data/F4qe@2.jpg'
p3649
S'F4qe'
p3650
sS'merge_data/H5RG@1.jpg'
p3651
S'H5RG'
p3652
sS'merge_data/YPK7@3.jpg'
p3653
S'YPK7'
p3654
sS'merge_data/czVK@2.jpg'
p3655
S'czVK'
p3656
sS'merge_data/MBXN@1.jpg'
p3657
S'MBXN'
p3658
sS'merge_data/dzqM@2.jpg'
p3659
S'dzqM'
p3660
sS'merge_data/DZQC@7.jpg'
p3661
S'DZQC'
p3662
sS'merge_data/SNCZ@4.jpg'
p3663
S'SNCZ'
p3664
sS'merge_data/WhEv@1.jpg'
p3665
S'WhEv'
p3666
sS'merge_data/HZVG@1.jpg'
p3667
S'HZVG'
p3668
sS'merge_data/ARN9@1.jpg'
p3669
S'ARN9'
p3670
sS'merge_data/EVRD@1.jpg'
p3671
S'EVRD'
p3672
sS'merge_data/WHEV@1.jpg'
p3673
S'WHEV'
p3674
sS'merge_data/h8vr@1.jpg'
p3675
S'h8vr'
p3676
sS'merge_data/XN9W@4.jpg'
p3677
S'XN9W'
p3678
sS'merge_data/Zmbx@1.jpg'
p3679
S'Zmbx'
p3680
sS'merge_data/VK7W@2.jpg'
p3681
S'VK7W'
p3682
sS'merge_data/paxn@1.jpg'
p3683
S'paxn'
p3684
sS'merge_data/F6TH@2.jpg'
p3685
S'F6TH'
p3686
sS'merge_data/d5rf@1.jpg'
p3687
S'd5rf'
p3688
sS'merge_data/hyvg@1.jpg'
p3689
S'hyvg'
p3690
sS'merge_data/YPJZ@1.jpg'
p3691
S'YPJZ'
p3692
sS'merge_data/durf@2.jpg'
p3693
S'durf'
p3694
sS'merge_data/H8UQ@2.jpg'
p3695
S'H8UQ'
p3696
sS'merge_data/shdu@1.jpg'
p3697
S'shdu'
p3698
sS'merge_data/4QEB@2.jpg'
p3699
S'4QEB'
p3700
sS'merge_data/2RCZ@4.jpg'
p3701
S'2RCZ'
p3702
sS'merge_data/YUG7@1.jpg'
p3703
S'YUG7'
p3704
sS'merge_data/UF6T@1.jpg'
p3705
S'UF6T'
p3706
sS'merge_data/E5RG@3.jpg'
p3707
S'E5RG'
p3708
sS'merge_data/pK7W@1.jpg'
p3709
S'pK7W'
p3710
sS'merge_data/SD4R@5.jpg'
p3711
S'SD4R'
p3712
sS'merge_data/DZQM@7.jpg'
p3713
S'DZQM'
p3714
sS'merge_data/H8UR@5.jpg'
p3715
S'H8UR'
p3716
sS'merge_data/F6TP@1.jpg'
p3717
S'F6TP'
p3718
sS'merge_data/5RFC@2.jpg'
p3719
S'5RFC'
p3720
sS'merge_data/2PJZ@5.jpg'
p3721
S'2PJZ'
p3722
sS'merge_data/XNJ6@1.jpg'
p3723
S'XNJ6'
p3724
sS'merge_data/NH6V@2.jpg'
p3725
S'NH6V'
p3726
sS'merge_data/H6SG@1.jpg'
p3727
S'H6SG'
p3728
sS'merge_data/ebxn@1.jpg'
p3729
S'ebxn'
p3730
sS'merge_data/PEAW@2.jpg'
p3731
S'PEAW'
p3732
sS'merge_data/PDZQ@1.jpg'
p3733
S'PDZQ'
p3734
sS'merge_data/KBXJ@1.jpg'
p3735
S'KBXJ'
p3736
sS'merge_data/YKGX@3.jpg'
p3737
S'YKGX'
p3738
sS'merge_data/HDUR@2.jpg'
p3739
S'HDUR'
p3740
sS'merge_data/hE2R@1.jpg'
p3741
S'hE2R'
p3742
sS'merge_data/KF4T@2.jpg'
p3743
S'KF4T'
p3744
sS'merge_data/2pjz@1.jpg'
p3745
S'2pjz'
p3746
sS'merge_data/YUJ7@1.jpg'
p3747
S'YUJ7'
p3748
sS'merge_data/E6SN@1.jpg'
p3749
S'E6SN'
p3750
sS'merge_data/VRD4@1.jpg'
p3751
S'VRD4'
p3752
sS'merge_data/XNJZ@3.jpg'
p3753
S'XNJZ'
p3754
sS'merge_data/EBSN@1.jpg'
p3755
S'EBSN'
p3756
sS'merge_data/MBXK@2.jpg'
p3757
S'MBXK'
p3758
sS'merge_data/6VGD@4.jpg'
p3759
S'6VGD'
p3760
sS'merge_data/2RCZ@3.jpg'
p3761
S'2RCZ'
p3762
sS'merge_data/EAXN@1.jpg'
p3763
S'EAXN'
p3764
sS'merge_data/evrd@2.jpg'
p3765
S'evrd'
p3766
sS'merge_data/YUJ7@5.jpg'
p3767
S'YUJ7'
p3768
sS'merge_data/bxka@1.jpg'
p3769
S'bxka'
p3770
sS'merge_data/ykgx@2.jpg'
p3771
S'ykgx'
p3772
sS'merge_data/pjzw@1.jpg'
p3773
S'pjzw'
p3774
sS'merge_data/3SD4@1.jpg'
p3775
S'3SD4'
p3776
sS'merge_data/RC4Q@4.jpg'
p3777
S'RC4Q'
p3778
sS'merge_data/PD2R@1.jpg'
p3779
S'PD2R'
p3780
sS'merge_data/AWTH@2.jpg'
p3781
S'AWTH'
p3782
sS'merge_data/AWM9@5.jpg'
p3783
S'AWM9'
p3784
sS'merge_data/ypka@2.jpg'
p3785
S'ypka'
p3786
sS'merge_data/B2NH@1.jpg'
p3787
S'B2NH'
p3788
sS'merge_data/SGCY@2.jpg'
p3789
S'SGCY'
p3790
sS'merge_data/VSG4@2.jpg'
p3791
S'VSG4'
p3792
sS'merge_data/VHDU@2.jpg'
p3793
S'VHDU'
p3794
sS'merge_data/rfBY@1.jpg'
p3795
S'rfBY'
p3796
sS'merge_data/gduq@1.jpg'
p3797
S'gduq'
p3798
sS'merge_data/YUF6@1.jpg'
p3799
S'YUF6'
p3800
sS'merge_data/b2nc@1.jpg'
p3801
S'b2nc'
p3802
sS'merge_data/KFWT@3.jpg'
p3803
S'KFWT'
p3804
sS'merge_data/K8XJ@1.jpg'
p3805
S'K8XJ'
p3806
sS'merge_data/4UF6@2.jpg'
p3807
S'4UF6'
p3808
sS'merge_data/GXTF@3.jpg'
p3809
S'GXTF'
p3810
sS'merge_data/QMBX@1.jpg'
p3811
S'QMBX'
p3812
sS'merge_data/M8UK@1.jpg'
p3813
S'M8UK'
p3814
sS'merge_data/KF3T@3.jpg'
p3815
S'KF3T'
p3816
sS'merge_data/f3qe@1.jpg'
p3817
S'f3qe'
p3818
sS'merge_data/6VgD@1.jpg'
p3819
S'6VgD'
p3820
sS'merge_data/d2nc@2.jpg'
p3821
S'd2nc'
p3822
sS'merge_data/5RFC@4.jpg'
p3823
S'5RFC'
p3824
sS'merge_data/RNCY@1.jpg'
p3825
S'RNCY'
p3826
sS'merge_data/BSPA@2.jpg'
p3827
S'BSPA'
p3828
sS'merge_data/kaxn@1.jpg'
p3829
S'kaxn'
p3830
sS'merge_data/G8UJ@1.jpg'
p3831
S'G8UJ'
p3832
sS'merge_data/D4RM@1.jpg'
p3833
S'D4RM'
p3834
sS'merge_data/6SND@2.jpg'
p3835
S'6SND'
p3836
sS'merge_data/UJF3@2.jpg'
p3837
S'UJF3'
p3838
sS'merge_data/n9ym@1.jpg'
p3839
S'n9ym'
p3840
sS'merge_data/spaz@1.jpg'
p3841
S'spaz'
p3842
sS'merge_data/m9vk@1.jpg'
p3843
S'm9vk'
p3844
sS'merge_data/JZWH@2.jpg'
p3845
S'JZWH'
p3846
sS'merge_data/rf3q@1.jpg'
p3847
S'rf3q'
p3848
sS'merge_data/znhy@1.jpg'
p3849
S'znhy'
p3850
sS'merge_data/8UJF@6.jpg'
p3851
S'8UJF'
p3852
sS'merge_data/C3QE@1.jpg'
p3853
S'C3QE'
p3854
sS'merge_data/EWSG@1.jpg'
p3855
S'EWSG'
p3856
sS'merge_data/E5RF@2.jpg'
p3857
S'E5RF'
p3858
sS'merge_data/VH8U@3.jpg'
p3859
S'VH8U'
p3860
sS'merge_data/SGCY@1.jpg'
p3861
S'SGCY'
p3862
sS'merge_data/WM8X@1.jpg'
p3863
S'WM8X'
p3864
sS'merge_data/5rgc@1.jpg'
p3865
S'5rgc'
p3866
sS'merge_data/UJ6W@1.jpg'
p3867
S'UJ6W'
p3868
sS'merge_data/CZQK@2.jpg'
p3869
S'CZQK'
p3870
sS'merge_data/mbyp@1.jpg'
p3871
S'mbyp'
p3872
sS'merge_data/J9WM@2.jpg'
p3873
S'J9WM'
p3874
sS'merge_data/E2pd@1.jpg'
p3875
S'E2pd'
p3876
sS'merge_data/KAWM@1.jpg'
p3877
S'KAWM'
p3878
sS'merge_data/KG4T@1.jpg'
p3879
S'KG4T'
p3880
sS'merge_data/2rc3@2.jpg'
p3881
S'2rc3'
p3882
sS'merge_data/vgct@1.jpg'
p3883
S'vgct'
p3884
sS'merge_data/UF7T@2.jpg'
p3885
S'UF7T'
p3886
sS'merge_data/XNAW@5.jpg'
p3887
S'XNAW'
p3888
sS'merge_data/wsg5@1.jpg'
p3889
S'wsg5'
p3890
sS'merge_data/7TJE@2.jpg'
p3891
S'7TJE'
p3892
sS'merge_data/8VKF@3.jpg'
p3893
S'8VKF'
p3894
sS'merge_data/GXTF@4.jpg'
p3895
S'GXTF'
p3896
sS'merge_data/2pdz@1.jpg'
p3897
S'2pdz'
p3898
sS'merge_data/UQB3@1.jpg'
p3899
S'UQB3'
p3900
sS'merge_data/RFCT@2.jpg'
p3901
S'RFCT'
p3902
sS'merge_data/QB2N@1.jpg'
p3903
S'QB2N'
p3904
sS'merge_data/qk8x@1.jpg'
p3905
S'qk8x'
p3906
sS'merge_data/3PEA@1.jpg'
p3907
S'3PEA'
p3908
sS'merge_data/MG4U@2.jpg'
p3909
S'MG4U'
p3910
sS'merge_data/ZQKB@2.jpg'
p3911
S'ZQKB'
p3912
sS'merge_data/AZMB@1.jpg'
p3913
S'AZMB'
p3914
sS'merge_data/mHyU@2.jpg'
p3915
S'mHyU'
p3916
sS'merge_data/J6WH@1.jpg'
p3917
S'J6WH'
p3918
sS'merge_data/bypj@3.jpg'
p3919
S'bypj'
p3920
sS'merge_data/AZNH@1.jpg'
p3921
S'AZNH'
p3922
sS'merge_data/M9VK@1.jpg'
p3923
S'M9VK'
p3924
sS'merge_data/9VKG@1.jpg'
p3925
S'9VKG'
p3926
sS'merge_data/Vh8u@1.jpg'
p3927
S'Vh8u'
p3928
sS'merge_data/thDu@1.jpg'
p3929
S'thDu'
p3930
sS'merge_data/ncyq@1.jpg'
p3931
S'ncyq'
p3932
sS'merge_data/TJ6V@1.jpg'
p3933
S'TJ6V'
p3934
sS'merge_data/RFCT@1.jpg'
p3935
S'RFCT'
p3936
sS'merge_data/2NCZ@4.jpg'
p3937
S'2NCZ'
p3938
sS'merge_data/5SNC@2.jpg'
p3939
S'5SNC'
p3940
sS'merge_data/GCZQ@6.jpg'
p3941
S'GCZQ'
p3942
sS'merge_data/GDZQ@2.jpg'
p3943
S'GDZQ'
p3944
sS'merge_data/xTH6@1.jpg'
p3945
S'xTH6'
p3946
sS'merge_data/vrf3@1.jpg'
p3947
S'vrf3'
p3948
sS'merge_data/7THE@2.jpg'
p3949
S'7THE'
p3950
sS'merge_data/ZQC3@2.jpg'
p3951
S'ZQC3'
p3952
sS'merge_data/6SNC@2.jpg'
p3953
S'6SNC'
p3954
sS'merge_data/GDUQ@3.jpg'
p3955
S'GDUQ'
p3956
sS'merge_data/KAWM@2.jpg'
p3957
S'KAWM'
p3958
sS'merge_data/3pJA@1.jpg'
p3959
S'3pJA'
p3960
sS'merge_data/k7uj@1.jpg'
p3961
S'k7uj'
p3962
sS'merge_data/QM8X@1.jpg'
p3963
S'QM8X'
p3964
sS'merge_data/sgDu@1.jpg'
p3965
S'sgDu'
p3966
sS'merge_data/PKAW@1.jpg'
p3967
S'PKAW'
p3968
sS'merge_data/XTF6@1.jpg'
p3969
S'XTF6'
p3970
sS'merge_data/URC3@1.jpg'
p3971
S'URC3'
p3972
sS'merge_data/YPAZ@1.jpg'
p3973
S'YPAZ'
p3974
sS'merge_data/sgcy@2.jpg'
p3975
S'sgcy'
p3976
sS'merge_data/QE2N@1.jpg'
p3977
S'QE2N'
p3978
sS'merge_data/jevs@1.jpg'
p3979
S'jevs'
p3980
sS'merge_data/PB2N@3.jpg'
p3981
S'PB2N'
p3982
sS'merge_data/2NDZ@3.jpg'
p3983
S'2NDZ'
p3984
sS'merge_data/MGYU@1.jpg'
p3985
S'MGYU'
p3986
sS'merge_data/AXN9@4.jpg'
p3987
S'AXN9'
p3988
sS'merge_data/HYVK@3.jpg'
p3989
S'HYVK'
p3990
sS'merge_data/peaw@1.jpg'
p3991
S'peaw'
p3992
sS'merge_data/C3QK@1.jpg'
p3993
S'C3QK'
p3994
sS'merge_data/j7wh@1.jpg'
p3995
S'j7wh'
p3996
sS'merge_data/XPAW@3.jpg'
p3997
S'XPAW'
p3998
sS'merge_data/dzqk@1.jpg'
p3999
S'dzqk'
p4000
sS'merge_data/XUJ6@4.jpg'
p4001
S'XUJ6'
p4002
sS'merge_data/nHyV@1.jpg'
p4003
S'nHyV'
p4004
sS'merge_data/THD2@1.jpg'
p4005
S'THD2'
p4006
sS'merge_data/vsd4@1.jpg'
p4007
S'vsd4'
p4008
sS'merge_data/FWTE@1.jpg'
p4009
S'FWTE'
p4010
sS'merge_data/bxnJ@1.jpg'
p4011
S'bxnJ'
p4012
sS'merge_data/nczV@1.jpg'
p4013
S'nczV'
p4014
sS'merge_data/CYPb@1.jpg'
p4015
S'CYPb'
p4016
sS'merge_data/XJ9W@5.jpg'
p4017
S'XJ9W'
p4018
sS'merge_data/e5sn@1.jpg'
p4019
S'e5sn'
p4020
sS'merge_data/e6sn@1.jpg'
p4021
S'e6sn'
p4022
sS'merge_data/vkfw@1.jpg'
p4023
S'vkfw'
p4024
sS'merge_data/dzwm@1.jpg'
p4025
S'dzwm'
p4026
sS'merge_data/3pda@2.jpg'
p4027
S'3pda'
p4028
sS'merge_data/4TF6@3.jpg'
p4029
S'4TF6'
p4030
sS'merge_data/FBXP@1.jpg'
p4031
S'FBXP'
p4032
sS'merge_data/PJZW@1.jpg'
p4033
S'PJZW'
p4034
sS'merge_data/XJ9W@2.jpg'
p4035
S'XJ9W'
p4036
sS'merge_data/VG7U@2.jpg'
p4037
S'VG7U'
p4038
sS'merge_data/GDZQ@6.jpg'
p4039
S'GDZQ'
p4040
sS'merge_data/VKFX@2.jpg'
p4041
S'VKFX'
p4042
sS'merge_data/vrd4@1.jpg'
p4043
S'vrd4'
p4044
sS'merge_data/PDZR@1.jpg'
p4045
S'PDZR'
p4046
sS'merge_data/7UJE@4.jpg'
p4047
S'7UJE'
p4048
sS'merge_data/SG5U@2.jpg'
p4049
S'SG5U'
p4050
sS'merge_data/b2nh@1.jpg'
p4051
S'b2nh'
p4052
sS'merge_data/SH5R@1.jpg'
p4053
S'SH5R'
p4054
sS'merge_data/SNDZ@3.jpg'
p4055
S'SNDZ'
p4056
sS'merge_data/2NCZ@3.jpg'
p4057
S'2NCZ'
p4058
sS'merge_data/8UQF@2.jpg'
p4059
S'8UQF'
p4060
sS'merge_data/D4RF@4.jpg'
p4061
S'D4RF'
p4062
sS'merge_data/AXNH@2.jpg'
p4063
S'AXNH'
p4064
sS'merge_data/RG4Q@1.jpg'
p4065
S'RG4Q'
p4066
sS'merge_data/7TQE@1.jpg'
p4067
S'7TQE'
p4068
sS'merge_data/GXTF@2.jpg'
p4069
S'GXTF'
p4070
sS'merge_data/tpa2@1.jpg'
p4071
S'tpa2'
p4072
sS'merge_data/GCTQ@1.jpg'
p4073
S'GCTQ'
p4074
sS'merge_data/qmbx@2.jpg'
p4075
S'qmbx'
p4076
sS'merge_data/thdu@1.jpg'
p4077
S'thdu'
p4078
sS'merge_data/JAWM@2.jpg'
p4079
S'JAWM'
p4080
sS'merge_data/jzvk@1.jpg'
p4081
S'jzvk'
p4082
sS'merge_data/DURC@1.jpg'
p4083
S'DURC'
p4084
sS'merge_data/PJZV@1.jpg'
p4085
S'PJZV'
p4086
sS'merge_data/KAXN@2.jpg'
p4087
S'KAXN'
p4088
sS'merge_data/qe2n@1.jpg'
p4089
S'qe2n'
p4090
sS'merge_data/tje2@1.jpg'
p4091
S'tje2'
p4092
sS'merge_data/3sda@2.jpg'
p4093
S'3sda'
p4094
sS'merge_data/E5RN@2.jpg'
p4095
S'E5RN'
p4096
sS'merge_data/KAXN@3.jpg'
p4097
S'KAXN'
p4098
sS'merge_data/6SHD@2.jpg'
p4099
S'6SHD'
p4100
sS'merge_data/NDZQ@1.jpg'
p4101
S'NDZQ'
p4102
sS'merge_data/YPJZ@2.jpg'
p4103
S'YPJZ'
p4104
sS'merge_data/ARMB@2.jpg'
p4105
S'ARMB'
p4106
sS'merge_data/VG7U@4.jpg'
p4107
S'VG7U'
p4108
sS'merge_data/uje3@1.jpg'
p4109
S'uje3'
p4110
sS'merge_data/g7uq@1.jpg'
p4111
S'g7uq'
p4112
sS'merge_data/7wj9@1.jpg'
p4113
S'7wj9'
p4114
sS'merge_data/TH5U@1.jpg'
p4115
S'TH5U'
p4116
sS'merge_data/mgxu@1.jpg'
p4117
S'mgxu'
p4118
sS'merge_data/FWSD@1.jpg'
p4119
S'FWSD'
p4120
sS'merge_data/qeas@1.jpg'
p4121
S'qeas'
p4122
sS'merge_data/SDAR@1.jpg'
p4123
S'SDAR'
p4124
sS'merge_data/RF3S@4.jpg'
p4125
S'RF3S'
p4126
sS'merge_data/XJAW@2.jpg'
p4127
S'XJAW'
p4128
sS'merge_data/yqk7@1.jpg'
p4129
S'yqk7'
p4130
sS'merge_data/VG7U@7.jpg'
p4131
S'VG7U'
p4132
sS'merge_data/g5uf@1.jpg'
p4133
S'g5uf'
p4134
sS'merge_data/SGDZ@3.jpg'
p4135
S'SGDZ'
p4136
sS'merge_data/tqb2@1.jpg'
p4137
S'tqb2'
p4138
sS'merge_data/VgDu@2.jpg'
p4139
S'VgDu'
p4140
sS'merge_data/M8XK@3.jpg'
p4141
S'M8XK'
p4142
sS'merge_data/4QFB@1.jpg'
p4143
S'4QFB'
p4144
sS'merge_data/BYKA@2.jpg'
p4145
S'BYKA'
p4146
sS'merge_data/NJZV@1.jpg'
p4147
S'NJZV'
p4148
sS'merge_data/8XJA@1.jpg'
p4149
S'8XJA'
p4150
sS'merge_data/XNAW@1.jpg'
p4151
S'XNAW'
p4152
sS'merge_data/earm@1.jpg'
p4153
S'earm'
p4154
sS'merge_data/tj6s@1.jpg'
p4155
S'tj6s'
p4156
sS'merge_data/FBSP@2.jpg'
p4157
S'FBSP'
p4158
sS'merge_data/ukfw@1.jpg'
p4159
S'ukfw'
p4160
sS'merge_data/D2RC@2.jpg'
p4161
S'D2RC'
p4162
sS'merge_data/N9YM@2.jpg'
p4163
S'N9YM'
p4164
sS'merge_data/PE2N@1.jpg'
p4165
S'PE2N'
p4166
sS'merge_data/VgDu@1.jpg'
p4167
S'VgDu'
p4168
sS'merge_data/VKF4@1.jpg'
p4169
S'VKF4'
p4170
sS'merge_data/axj9@1.jpg'
p4171
S'axj9'
p4172
sS'merge_data/SGDU@2.jpg'
p4173
S'SGDU'
p4174
sS'merge_data/G4TF@1.jpg'
p4175
S'G4TF'
p4176
sS'merge_data/mbyk@1.jpg'
p4177
S'mbyk'
p4178
sS'merge_data/4TE5@1.jpg'
p4179
S'4TE5'
p4180
sS'merge_data/UJE3@2.jpg'
p4181
S'UJE3'
p4182
sS'merge_data/H5UF@1.jpg'
p4183
S'H5UF'
p4184
sS'merge_data/9YKA@3.jpg'
p4185
S'9YKA'
p4186
sS'merge_data/TH5S@2.jpg'
p4187
S'TH5S'
p4188
sS'merge_data/HD2R@3.jpg'
p4189
S'HD2R'
p4190
sS'merge_data/bspa@3.jpg'
p4191
S'bspa'
p4192
sS'merge_data/UJ6S@1.jpg'
p4193
S'UJ6S'
p4194
sS'merge_data/N9YM@1.jpg'
p4195
S'N9YM'
p4196
sS'merge_data/5ufc@1.jpg'
p4197
S'5ufc'
p4198
sS'merge_data/UG7T@6.jpg'
p4199
S'UG7T'
p4200
sS'merge_data/mbxn@2.jpg'
p4201
S'mbxn'
p4202
sS'merge_data/RCZQ@1.jpg'
p4203
S'RCZQ'
p4204
sS'merge_data/K8UJ@5.jpg'
p4205
S'K8UJ'
p4206
sS'merge_data/BSNA@1.jpg'
p4207
S'BSNA'
p4208
sS'merge_data/4qka@1.jpg'
p4209
S'4qka'
p4210
sS'merge_data/7UJE@2.jpg'
p4211
S'7UJE'
p4212
sS'merge_data/H6Vg@3.jpg'
p4213
S'H6Vg'
p4214
sS'merge_data/SD4R@4.jpg'
p4215
S'SD4R'
p4216
sS'merge_data/VHDU@3.jpg'
p4217
S'VHDU'
p4218
sS'merge_data/ypJz@2.jpg'
p4219
S'ypJz'
p4220
sS'merge_data/XNH5@1.jpg'
p4221
S'XNH5'
p4222
sS'merge_data/RFBS@2.jpg'
p4223
S'RFBS'
p4224
sS'merge_data/bxnj@3.jpg'
p4225
S'bxnj'
p4226
sS'merge_data/qe3s@1.jpg'
p4227
S'qe3s'
p4228
sS'merge_data/2NCZ@5.jpg'
p4229
S'2NCZ'
p4230
sS'merge_data/mG5U@1.jpg'
p4231
S'mG5U'
p4232
sS'merge_data/5SGC@2.jpg'
p4233
S'5SGC'
p4234
sS'merge_data/njzv@2.jpg'
p4235
S'njzv'
p4236
sS'merge_data/CTPD@2.jpg'
p4237
S'CTPD'
p4238
sS'merge_data/XNJ6@2.jpg'
p4239
S'XNJ6'
p4240
sS'merge_data/VSG4@5.jpg'
p4241
S'VSG4'
p4242
sS'merge_data/j6vh@1.jpg'
p4243
S'j6vh'
p4244
sS'merge_data/5rfc@1.jpg'
p4245
S'5rfc'
p4246
sS'merge_data/6VGD@3.jpg'
p4247
S'6VGD'
p4248
sS'merge_data/hDuR@2.jpg'
p4249
S'hDuR'
p4250
sS'merge_data/qeBX@2.jpg'
p4251
S'qeBX'
p4252
sS'merge_data/6WH8@1.jpg'
p4253
S'6WH8'
p4254
sS'merge_data/NH5V@2.jpg'
p4255
S'NH5V'
p4256
sS'merge_data/3TEA@2.jpg'
p4257
S'3TEA'
p4258
sS'merge_data/6VHD@1.jpg'
p4259
S'6VHD'
p4260
sS'merge_data/4rmb@1.jpg'
p4261
S'4rmb'
p4262
sS'merge_data/pazn@1.jpg'
p4263
S'pazn'
p4264
sS'merge_data/XN9W@3.jpg'
p4265
S'XN9W'
p4266
sS'merge_data/Ykbx@1.jpg'
p4267
S'Ykbx'
p4268
sS'merge_data/H5SG@1.jpg'
p4269
S'H5SG'
p4270
sS'merge_data/KF4T@1.jpg'
p4271
S'KF4T'
p4272
sS'merge_data/bxnj@1.jpg'
p4273
S'bxnj'
p4274
sS'merge_data/VSG4@8.jpg'
p4275
S'VSG4'
p4276
sS'merge_data/E2RC@1.jpg'
p4277
S'E2RC'
p4278
sS'merge_data/TPD2@1.jpg'
p4279
S'TPD2'
p4280
sS'merge_data/YUK7@3.jpg'
p4281
S'YUK7'
p4282
sS'merge_data/PJZW@6.jpg'
p4283
S'PJZW'
p4284
sS'merge_data/FBSN@1.jpg'
p4285
S'FBSN'
p4286
sS'merge_data/GDUQ@1.jpg'
p4287
S'GDUQ'
p4288
sS'merge_data/NAWM@2.jpg'
p4289
S'NAWM'
p4290
sS'merge_data/AZNH@3.jpg'
p4291
S'AZNH'
p4292
sS'merge_data/3PDA@2.jpg'
p4293
S'3PDA'
p4294
sS'merge_data/EVRF@4.jpg'
p4295
S'EVRF'
p4296
sS'merge_data/B2NC@1.jpg'
p4297
S'B2NC'
p4298
sS'merge_data/sh5u@1.jpg'
p4299
S'sh5u'
p4300
sS'merge_data/YPAZ@2.jpg'
p4301
S'YPAZ'
p4302
sS'merge_data/sgCt@2.jpg'
p4303
S'sgCt'
p4304
sS'merge_data/NCYQ@2.jpg'
p4305
S'NCYQ'
p4306
sS'merge_data/RM9Y@3.jpg'
p4307
S'RM9Y'
p4308
sS'merge_data/ebsn@3.jpg'
p4309
S'ebsn'
p4310
sS'merge_data/xuf6@2.jpg'
p4311
S'xuf6'
p4312
sS'merge_data/K7UJ@2.jpg'
p4313
S'K7UJ'
p4314
sS'merge_data/G5FC@1.jpg'
p4315
S'G5FC'
p4316
sS'merge_data/7TPE@1.jpg'
p4317
S'7TPE'
p4318
sS'merge_data/YUK7@2.jpg'
p4319
S'YUK7'
p4320
sS'merge_data/xth6@1.jpg'
p4321
S'xth6'
p4322
sS'merge_data/RF3S@3.jpg'
p4323
S'RF3S'
p4324
sS'merge_data/3qka@1.jpg'
p4325
S'3qka'
p4326
sS'merge_data/ZMBY@1.jpg'
p4327
S'ZMBY'
p4328
sS'merge_data/7THE@1.jpg'
p4329
S'7THE'
p4330
sS'merge_data/E5SN@2.jpg'
p4331
S'E5SN'
p4332
sS'merge_data/TH5U@2.jpg'
p4333
S'TH5U'
p4334
sS'merge_data/TJ6S@1.jpg'
p4335
S'TJ6S'
p4336
sS'merge_data/n9vk@1.jpg'
p4337
S'n9vk'
p4338
sS'merge_data/VG7U@6.jpg'
p4339
S'VG7U'
p4340
sS'merge_data/2RCY@1.jpg'
p4341
S'2RCY'
p4342
sS'merge_data/JAWM@1.jpg'
p4343
S'JAWM'
p4344
sS'merge_data/DZQK@3.jpg'
p4345
S'DZQK'
p4346
sS'merge_data/AWM9@3.jpg'
p4347
S'AWM9'
p4348
sS'merge_data/MGXU@1.jpg'
p4349
S'MGXU'
p4350
sS'merge_data/j9ws@1.jpg'
p4351
S'j9ws'
p4352
sS'merge_data/MGXU@7.jpg'
p4353
S'MGXU'
p4354
sS'merge_data/JEVS@3.jpg'
p4355
S'JEVS'
p4356
sS'merge_data/GxTH@1.jpg'
p4357
S'GxTH'
p4358
sS'merge_data/7TJE@3.jpg'
p4359
S'7TJE'
p4360
sS'merge_data/4teb@1.jpg'
p4361
S'4teb'
p4362
sS'merge_data/HDUR@7.jpg'
p4363
S'HDUR'
p4364
sS'merge_data/G4qe@1.jpg'
p4365
S'G4qe'
p4366
sS'merge_data/g4tf@2.jpg'
p4367
S'g4tf'
p4368
sS'merge_data/b2pj@2.jpg'
p4369
S'b2pj'
p4370
sS'merge_data/cypk@1.jpg'
p4371
S'cypk'
p4372
sS'merge_data/4TEB@2.jpg'
p4373
S'4TEB'
p4374
sS'merge_data/5rmb@1.jpg'
p4375
S'5rmb'
p4376
sS'merge_data/PJAW@1.jpg'
p4377
S'PJAW'
p4378
sS'merge_data/6vhd@1.jpg'
p4379
S'6vhd'
p4380
sS'merge_data/VK8U@3.jpg'
p4381
S'VK8U'
p4382
sS'merge_data/Sd4q@1.jpg'
p4383
S'Sd4q'
p4384
sS'merge_data/DZQC@2.jpg'
p4385
S'DZQC'
p4386
sS'merge_data/J6VH@3.jpg'
p4387
S'J6VH'
p4388
sS'merge_data/GXUJ@2.jpg'
p4389
S'GXUJ'
p4390
sS'merge_data/VK7X@3.jpg'
p4391
S'VK7X'
p4392
sS'merge_data/VK8X@1.jpg'
p4393
S'VK8X'
p4394
sS'merge_data/YPKA@2.jpg'
p4395
S'YPKA'
p4396
sS'merge_data/byuj@2.jpg'
p4397
S'byuj'
p4398
sS'merge_data/NHZV@2.jpg'
p4399
S'NHZV'
p4400
sS'merge_data/sgDZ@1.jpg'
p4401
S'sgDZ'
p4402
sS'merge_data/yUJ7@1.jpg'
p4403
S'yUJ7'
p4404
sS'merge_data/njzv@1.jpg'
p4405
S'njzv'
p4406
sS'merge_data/TQB2@1.jpg'
p4407
S'TQB2'
p4408
sS'merge_data/BXNA@4.jpg'
p4409
S'BXNA'
p4410
sS'merge_data/EVRD@5.jpg'
p4411
S'EVRD'
p4412
sS'merge_data/BXN9@2.jpg'
p4413
S'BXN9'
p4414
sS'merge_data/AXNH@1.jpg'
p4415
S'AXNH'
p4416
sS'merge_data/7UJE@6.jpg'
p4417
S'7UJE'
p4418
sS'merge_data/sg4u@1.jpg'
p4419
S'sg4u'
p4420
sS'merge_data/GDUQ@2.jpg'
p4421
S'GDUQ'
p4422
sS'merge_data/RM8Y@1.jpg'
p4423
S'RM8Y'
p4424
sS'merge_data/SGCT@2.jpg'
p4425
S'SGCT'
p4426
sS'merge_data/XUJ6@3.jpg'
p4427
S'XUJ6'
p4428
sS'merge_data/SHDZ@2.jpg'
p4429
S'SHDZ'
p4430
sS'merge_data/cypK@2.jpg'
p4431
S'cypK'
p4432
sS'merge_data/5rnc@1.jpg'
p4433
S'5rnc'
p4434
sS'merge_data/tpa2@2.jpg'
p4435
S'tpa2'
p4436
sS'merge_data/axth@2.jpg'
p4437
S'axth'
p4438
sS'merge_data/8VKF@5.jpg'
p4439
S'8VKF'
p4440
sS'merge_data/CYPB@1.jpg'
p4441
S'CYPB'
p4442
sS'merge_data/Se5r@3.jpg'
p4443
S'Se5r'
p4444
sS'merge_data/m8vk@1.jpg'
p4445
S'm8vk'
p4446
sS'merge_data/te6s@1.jpg'
p4447
S'te6s'
p4448
sS'merge_data/n9wm@1.jpg'
p4449
S'n9wm'
p4450
sS'merge_data/DARM@2.jpg'
p4451
S'DARM'
p4452
sS'merge_data/2SD4@2.jpg'
p4453
S'2SD4'
p4454
sS'merge_data/E2PD@3.jpg'
p4455
S'E2PD'
p4456
sS'merge_data/TH6V@1.jpg'
p4457
S'TH6V'
p4458
sS'merge_data/UF6T@2.jpg'
p4459
S'UF6T'
p4460
sS'merge_data/VG7U@3.jpg'
p4461
S'VG7U'
p4462
sS'merge_data/JEVS@1.jpg'
p4463
S'JEVS'
p4464
sS'merge_data/xnh6@1.jpg'
p4465
S'xnh6'
p4466
sS'merge_data/CYQK@2.jpg'
p4467
S'CYQK'
p4468
sS'merge_data/sh5u@2.jpg'
p4469
S'sh5u'
p4470
sS'merge_data/VRF4@2.jpg'
p4471
S'VRF4'
p4472
sS'merge_data/MBYU@1.jpg'
p4473
S'MBYU'
p4474
sS'merge_data/bxna@5.jpg'
p4475
S'bxna'
p4476
sS'merge_data/FWSH@1.jpg'
p4477
S'FWSH'
p4478
sS'merge_data/ASNC@1.jpg'
p4479
S'ASNC'
p4480
sS'merge_data/8vkf@1.jpg'
p4481
S'8vkf'
p4482
sS'merge_data/SPDZ@8.jpg'
p4483
S'SPDZ'
p4484
sS'merge_data/5RMB@1.jpg'
p4485
S'5RMB'
p4486
sS'merge_data/DZQC@3.jpg'
p4487
S'DZQC'
p4488
sS'merge_data/2Rcz@1.jpg'
p4489
S'2Rcz'
p4490
sS'merge_data/3qKA@1.jpg'
p4491
S'3qKA'
p4492
sS'merge_data/PA2N@3.jpg'
p4493
S'PA2N'
p4494
sS'merge_data/wm9y@1.jpg'
p4495
S'wm9y'
p4496
sS'merge_data/earn@2.jpg'
p4497
S'earn'
p4498
sS'merge_data/YPAX@3.jpg'
p4499
S'YPAX'
p4500
sS'merge_data/PAZN@1.jpg'
p4501
S'PAZN'
p4502
sS'merge_data/kfwt@2.jpg'
p4503
S'kfwt'
p4504
sS'merge_data/QC3P@2.jpg'
p4505
S'QC3P'
p4506
sS'merge_data/BYPJ@1.jpg'
p4507
S'BYPJ'
p4508
sS'merge_data/FBYP@3.jpg'
p4509
S'FBYP'
p4510
sS'merge_data/sg5r@1.jpg'
p4511
S'sg5r'
p4512
sS'merge_data/B2PD@3.jpg'
p4513
S'B2PD'
p4514
sS'merge_data/qb3p@1.jpg'
p4515
S'qb3p'
p4516
sS'merge_data/e5sg@1.jpg'
p4517
S'e5sg'
p4518
sS'merge_data/5ufb@1.jpg'
p4519
S'5ufb'
p4520
sS'merge_data/SNAZ@2.jpg'
p4521
S'SNAZ'
p4522
sS'merge_data/pd2r@1.jpg'
p4523
S'pd2r'
p4524
sS'merge_data/JEVR@1.jpg'
p4525
S'JEVR'
p4526
sS'merge_data/pazm@1.jpg'
p4527
S'pazm'
p4528
sS'merge_data/RFBT@2.jpg'
p4529
S'RFBT'
p4530
sS'merge_data/D4RF@2.jpg'
p4531
S'D4RF'
p4532
sS'merge_data/UfCt@1.jpg'
p4533
S'UfCt'
p4534
sS'merge_data/AZNC@1.jpg'
p4535
S'AZNC'
p4536
sS'merge_data/TfBs@1.jpg'
p4537
S'TfBs'
p4538
sS'merge_data/ZRC3@1.jpg'
p4539
S'ZRC3'
p4540
sS'merge_data/Vg7u@1.jpg'
p4541
S'Vg7u'
p4542
sS'merge_data/KAWM@5.jpg'
p4543
S'KAWM'
p4544
sS'merge_data/TEAR@1.jpg'
p4545
S'TEAR'
p4546
sS'merge_data/YVG7@1.jpg'
p4547
S'YVG7'
p4548
sS'merge_data/2RC3@1.jpg'
p4549
S'2RC3'
p4550
sS'merge_data/NJZV@4.jpg'
p4551
S'NJZV'
p4552
sS'merge_data/mh5u@1.jpg'
p4553
S'mh5u'
p4554
sS'merge_data/uqb3@1.jpg'
p4555
S'uqb3'
p4556
sS'merge_data/AWSG@1.jpg'
p4557
S'AWSG'
p4558
sS'merge_data/nczm@1.jpg'
p4559
S'nczm'
p4560
sS'merge_data/CTQB@1.jpg'
p4561
S'CTQB'
p4562
sS'merge_data/kbxj@2.jpg'
p4563
S'kbxj'
p4564
sS'merge_data/uj7w@1.jpg'
p4565
S'uj7w'
p4566
sS'merge_data/xnJ6@1.jpg'
p4567
S'xnJ6'
p4568
sS'merge_data/QE2R@2.jpg'
p4569
S'QE2R'
p4570
sS'merge_data/hd2r@1.jpg'
p4571
S'hd2r'
p4572
sS'merge_data/UJ7W@1.jpg'
p4573
S'UJ7W'
p4574
sS'merge_data/UJ6T@2.jpg'
p4575
S'UJ6T'
p4576
sS'merge_data/vRF4@1.jpg'
p4577
S'vRF4'
p4578
sS'merge_data/hdzr@1.jpg'
p4579
S'hdzr'
p4580
sS'merge_data/kaxn@4.jpg'
p4581
S'kaxn'
p4582
sS'merge_data/M9Yk@2.jpg'
p4583
S'M9Yk'
p4584
sS'merge_data/2NJZ@1.jpg'
p4585
S'2NJZ'
p4586
sS'merge_data/ctpb@1.jpg'
p4587
S'ctpb'
p4588
sS'merge_data/9YKA@1.jpg'
p4589
S'9YKA'
p4590
sS'merge_data/RD4Q@3.jpg'
p4591
S'RD4Q'
p4592
sS'merge_data/SH5R@3.jpg'
p4593
S'SH5R'
p4594
sS'merge_data/MBYP@2.jpg'
p4595
S'MBYP'
p4596
sS'merge_data/DUQB@2.jpg'
p4597
S'DUQB'
p4598
sS'merge_data/3peA@1.jpg'
p4599
S'3peA'
p4600
sS'merge_data/9YKG@1.jpg'
p4601
S'9YKG'
p4602
sS'merge_data/BXKA@1.jpg'
p4603
S'BXKA'
p4604
sS'merge_data/YPKA@3.jpg'
p4605
S'YPKA'
p4606
sS'merge_data/3pda@1.jpg'
p4607
S'3pda'
p4608
sS'merge_data/K8Xj@1.jpg'
p4609
S'K8Xj'
p4610
sS'merge_data/D4QM@1.jpg'
p4611
S'D4QM'
p4612
sS'merge_data/qear@1.jpg'
p4613
S'qear'
p4614
sS'merge_data/BYUJ@1.jpg'
p4615
S'BYUJ'
p4616
sS'merge_data/3qeA@1.jpg'
p4617
S'3qeA'
p4618
sS'merge_data/rfCt@1.jpg'
p4619
S'rfCt'
p4620
sS'merge_data/XUF6@3.jpg'
p4621
S'XUF6'
p4622
sS'merge_data/XUJ6@2.jpg'
p4623
S'XUJ6'
p4624
sS'merge_data/M9YK@2.jpg'
p4625
S'M9YK'
p4626
sS'merge_data/UJFW@2.jpg'
p4627
S'UJFW'
p4628
sS'merge_data/Vh8u@2.jpg'
p4629
S'Vh8u'
p4630
sS'merge_data/jzwh@1.jpg'
p4631
S'jzwh'
p4632
sS'merge_data/SPDZ@2.jpg'
p4633
S'SPDZ'
p4634
sS'merge_data/KFWT@4.jpg'
p4635
S'KFWT'
p4636
sS'merge_data/8URF@2.jpg'
p4637
S'8URF'
p4638
sS'merge_data/J6TH@1.jpg'
p4639
S'J6TH'
p4640
sS'merge_data/RGCY@2.jpg'
p4641
S'RGCY'
p4642
sS'merge_data/fwte@1.jpg'
p4643
S'fwte'
p4644
sS'merge_data/UJF3@4.jpg'
p4645
S'UJF3'
p4646
sS'merge_data/ARM8@1.jpg'
p4647
S'ARM8'
p4648
sS'merge_data/F3QE@2.jpg'
p4649
S'F3QE'
p4650
sS'merge_data/HDVR@5.jpg'
p4651
S'HDVR'
p4652
sS'merge_data/8UKF@1.jpg'
p4653
S'8UKF'
p4654
sS'merge_data/ZRc3@2.jpg'
p4655
S'ZRc3'
p4656
sS'merge_data/J6WH@2.jpg'
p4657
S'J6WH'
p4658
sS'merge_data/THD2@2.jpg'
p4659
S'THD2'
p4660
sS'merge_data/pdzq@1.jpg'
p4661
S'pdzq'
p4662
sS'merge_data/ypax@1.jpg'
p4663
S'ypax'
p4664
sS'merge_data/NAWM@1.jpg'
p4665
S'NAWM'
p4666
sS'merge_data/9VMG@1.jpg'
p4667
S'9VMG'
p4668
sS'merge_data/JZVH@3.jpg'
p4669
S'JZVH'
p4670
sS'merge_data/AXTH@1.jpg'
p4671
S'AXTH'
p4672
sS'merge_data/B2PJ@1.jpg'
p4673
S'B2PJ'
p4674
sS'merge_data/AXNH@5.jpg'
p4675
S'AXNH'
p4676
sS'merge_data/AWJ9@3.jpg'
p4677
S'AWJ9'
p4678
sS'merge_data/XTH6@1.jpg'
p4679
S'XTH6'
p4680
sS'merge_data/B2PD@5.jpg'
p4681
S'B2PD'
p4682
sS'merge_data/VKF4@2.jpg'
p4683
S'VKF4'
p4684
sS'merge_data/Rdzq@1.jpg'
p4685
S'Rdzq'
p4686
sS'merge_data/wj9v@1.jpg'
p4687
S'wj9v'
p4688
sS'merge_data/pear@1.jpg'
p4689
S'pear'
p4690
sS'merge_data/wnhy@1.jpg'
p4691
S'wnhy'
p4692
sS'merge_data/MG4U@1.jpg'
p4693
S'MG4U'
p4694
sS'merge_data/KG4T@3.jpg'
p4695
S'KG4T'
p4696
sS'merge_data/kFwT@1.jpg'
p4697
S'kFwT'
p4698
sS'merge_data/NJ6V@1.jpg'
p4699
S'NJ6V'
p4700
sS'merge_data/evrd@1.jpg'
p4701
S'evrd'
p4702
sS'merge_data/FCTP@2.jpg'
p4703
S'FCTP'
p4704
sS'merge_data/2SD4@1.jpg'
p4705
S'2SD4'
p4706
sS'merge_data/xtf6@1.jpg'
p4707
S'xtf6'
p4708
sS'merge_data/xnhy@1.jpg'
p4709
S'xnhy'
p4710
sS'merge_data/CUQE@1.jpg'
p4711
S'CUQE'
p4712
sS'merge_data/9vmg@1.jpg'
p4713
S'9vmg'
p4714
sS'merge_data/zVM8@1.jpg'
p4715
S'zVM8'
p4716
sS'merge_data/xn9y@1.jpg'
p4717
S'xn9y'
p4718
sS'merge_data/QK7X@1.jpg'
p4719
S'QK7X'
p4720
sS'merge_data/wmGx@1.jpg'
p4721
S'wmGx'
p4722
sS'merge_data/VHDU@1.jpg'
p4723
S'VHDU'
p4724
sS'merge_data/2PJZ@1.jpg'
p4725
S'2PJZ'
p4726
sS'merge_data/8YKF@2.jpg'
p4727
S'8YKF'
p4728
sS'merge_data/g7tq@1.jpg'
p4729
S'g7tq'
p4730
sS'merge_data/5VG7@2.jpg'
p4731
S'5VG7'
p4732
sS'merge_data/k7xj@1.jpg'
p4733
S'k7xj'
p4734
sS'merge_data/B2PD@6.jpg'
p4735
S'B2PD'
p4736
sS'merge_data/VHDU@4.jpg'
p4737
S'VHDU'
p4738
sS'merge_data/TFBS@1.jpg'
p4739
S'TFBS'
p4740
sS'merge_data/zWM8@1.jpg'
p4741
S'zWM8'
p4742
sS'merge_data/ZQC3@1.jpg'
p4743
S'ZQC3'
p4744
sS'merge_data/C4QE@1.jpg'
p4745
S'C4QE'
p4746
sS'merge_data/E2RD@8.jpg'
p4747
S'E2RD'
p4748
sS'merge_data/G4RF@3.jpg'
p4749
S'G4RF'
p4750
sS'merge_data/KAWH@1.jpg'
p4751
S'KAWH'
p4752
sS'merge_data/RFBS@1.jpg'
p4753
S'RFBS'
p4754
sS'merge_data/zmhy@1.jpg'
p4755
S'zmhy'
p4756
sS'merge_data/uRF3@2.jpg'
p4757
S'uRF3'
p4758
sS'merge_data/E5RN@1.jpg'
p4759
S'E5RN'
p4760
sS'merge_data/PB2N@2.jpg'
p4761
S'PB2N'
p4762
sS'merge_data/EVRD@7.jpg'
p4763
S'EVRD'
p4764
sS'merge_data/9YMG@1.jpg'
p4765
S'9YMG'
p4766
sS'merge_data/UF6T@3.jpg'
p4767
S'UF6T'
p4768
sS'merge_data/xjfw@1.jpg'
p4769
S'xjfw'
p4770
sS'merge_data/ypaz@1.jpg'
p4771
S'ypaz'
p4772
sS'merge_data/7whe@1.jpg'
p4773
S'7whe'
p4774
sS'merge_data/E5SN@3.jpg'
p4775
S'E5SN'
p4776
sS'merge_data/2ndz@1.jpg'
p4777
S'2ndz'
p4778
sS'merge_data/HEVR@2.jpg'
p4779
S'HEVR'
p4780
sS'merge_data/XTJ6@1.jpg'
p4781
S'XTJ6'
p4782
sS'merge_data/AZNH@2.jpg'
p4783
S'AZNH'
p4784
sS'merge_data/M8YK@1.jpg'
p4785
S'M8YK'
p4786
sS'merge_data/kawm@3.jpg'
p4787
S'kawm'
p4788
sS'merge_data/3PKA@1.jpg'
p4789
S'3PKA'
p4790
sS'merge_data/AWN9@5.jpg'
p4791
S'AWN9'
p4792
sS'merge_data/zqby@1.jpg'
p4793
S'zqby'
p4794
sS'merge_data/8ujf@1.jpg'
p4795
S'8ujf'
p4796
sS'merge_data/H8UR@4.jpg'
p4797
S'H8UR'
p4798
sS'merge_data/9YMB@1.jpg'
p4799
S'9YMB'
p4800
sS'merge_data/GXTH@1.jpg'
p4801
S'GXTH'
p4802
sS'merge_data/Uf6t@1.jpg'
p4803
S'Uf6t'
p4804
sS'merge_data/VRC4@2.jpg'
p4805
S'VRC4'
p4806
sS'merge_data/th5v@1.jpg'
p4807
S'th5v'
p4808
sS'merge_data/UJ6t@1.jpg'
p4809
S'UJ6t'
p4810
sS'merge_data/NH5V@1.jpg'
p4811
S'NH5V'
p4812
sS'merge_data/YUK7@5.jpg'
p4813
S'YUK7'
p4814
sS'merge_data/vk7u@1.jpg'
p4815
S'vk7u'
p4816
sS'merge_data/yUJ7@2.jpg'
p4817
S'yUJ7'
p4818
sS'merge_data/E2RD@1.jpg'
p4819
S'E2RD'
p4820
sS'merge_data/SG4T@1.jpg'
p4821
S'SG4T'
p4822
sS'merge_data/TPAZ@1.jpg'
p4823
S'TPAZ'
p4824
sS'merge_data/UF6T@5.jpg'
p4825
S'UF6T'
p4826
sS'merge_data/DZQC@6.jpg'
p4827
S'DZQC'
p4828
sS'merge_data/TPE2@1.jpg'
p4829
S'TPE2'
p4830
sS'merge_data/sncz@1.jpg'
p4831
S'sncz'
p4832
sS'merge_data/DVRC@1.jpg'
p4833
S'DVRC'
p4834
sS'merge_data/PKAW@3.jpg'
p4835
S'PKAW'
p4836
sS'merge_data/TPD2@3.jpg'
p4837
S'TPD2'
p4838
sS'merge_data/YKAX@1.jpg'
p4839
S'YKAX'
p4840
sS'merge_data/EAXN@3.jpg'
p4841
S'EAXN'
p4842
sS'merge_data/QBXN@2.jpg'
p4843
S'QBXN'
p4844
sS'merge_data/bxna@3.jpg'
p4845
S'bxna'
p4846
sS'merge_data/sgDZ@2.jpg'
p4847
S'sgDZ'
p4848
sS'merge_data/CYMB@2.jpg'
p4849
S'CYMB'
p4850
sS'merge_data/SD4R@9.jpg'
p4851
S'SD4R'
p4852
sS'merge_data/G7UJ@1.jpg'
p4853
S'G7UJ'
p4854
sS'merge_data/KFXT@4.jpg'
p4855
S'KFXT'
p4856
sS'merge_data/ZMCY@2.jpg'
p4857
S'ZMCY'
p4858
sS'merge_data/czqb@1.jpg'
p4859
S'czqb'
p4860
sS'merge_data/th5s@1.jpg'
p4861
S'th5s'
p4862
sS'merge_data/f3pd@1.jpg'
p4863
S'f3pd'
p4864
sS'merge_data/h5sg@1.jpg'
p4865
S'h5sg'
p4866
sS'merge_data/CYUJ@2.jpg'
p4867
S'CYUJ'
p4868
sS'merge_data/YVK7@3.jpg'
p4869
S'YVK7'
p4870
sS'merge_data/4TF6@1.jpg'
p4871
S'4TF6'
p4872
sS'merge_data/rMBY@2.jpg'
p4873
S'rMBY'
p4874
sS'merge_data/hD2R@1.jpg'
p4875
S'hD2R'
p4876
sS'merge_data/h8vk@1.jpg'
p4877
S'h8vk'
p4878
sS'merge_data/SD5R@1.jpg'
p4879
S'SD5R'
p4880
sS'merge_data/H9VR@2.jpg'
p4881
S'H9VR'
p4882
sS'merge_data/AXN9@1.jpg'
p4883
S'AXN9'
p4884
sS'merge_data/QE2S@1.jpg'
p4885
S'QE2S'
p4886
sS'merge_data/AWJ9@4.jpg'
p4887
S'AWJ9'
p4888
sS'merge_data/vh8u@2.jpg'
p4889
S'vh8u'
p4890
sS'merge_data/UG7T@7.jpg'
p4891
S'UG7T'
p4892
sS'merge_data/XJ9V@1.jpg'
p4893
S'XJ9V'
p4894
sS'merge_data/RC4Q@1.jpg'
p4895
S'RC4Q'
p4896
sS'merge_data/E6SG@1.jpg'
p4897
S'E6SG'
p4898
sS'merge_data/GXUF@3.jpg'
p4899
S'GXUF'
p4900
sS'merge_data/TH5S@1.jpg'
p4901
S'TH5S'
p4902
sS'merge_data/M8XK@2.jpg'
p4903
S'M8XK'
p4904
sS'merge_data/tqe2@1.jpg'
p4905
S'tqe2'
p4906
sS'merge_data/vgcu@1.jpg'
p4907
S'vgcu'
p4908
sS'merge_data/UQF3@4.jpg'
p4909
S'UQF3'
p4910
sS'merge_data/ARNC@2.jpg'
p4911
S'ARNC'
p4912
sS'merge_data/KFXT@1.jpg'
p4913
S'KFXT'
p4914
sS'merge_data/J7WH@2.jpg'
p4915
S'J7WH'
p4916
sS'merge_data/8VRF@1.jpg'
p4917
S'8VRF'
p4918
sS'merge_data/UK7T@1.jpg'
p4919
S'UK7T'
p4920
sS'merge_data/XNAZ@1.jpg'
p4921
S'XNAZ'
p4922
sS'merge_data/BSPA@3.jpg'
p4923
S'BSPA'
p4924
sS'merge_data/M8vk@1.jpg'
p4925
S'M8vk'
p4926
sS'merge_data/CYNH@1.jpg'
p4927
S'CYNH'
p4928
sS'merge_data/tPb2@1.jpg'
p4929
S'tPb2'
p4930
sS'merge_data/M8XK@6.jpg'
p4931
S'M8XK'
p4932
sS'merge_data/UJEW@1.jpg'
p4933
S'UJEW'
p4934
sS'merge_data/DZRc@1.jpg'
p4935
S'DZRc'
p4936
sS'merge_data/EASN@2.jpg'
p4937
S'EASN'
p4938
sS'merge_data/BYKA@1.jpg'
p4939
S'BYKA'
p4940
sS'merge_data/DZQM@3.jpg'
p4941
S'DZQM'
p4942
sS'merge_data/AXj9@1.jpg'
p4943
S'AXj9'
p4944
sS'merge_data/5RGC@1.jpg'
p4945
S'5RGC'
p4946
sS'merge_data/3SD4@2.jpg'
p4947
S'3SD4'
p4948
sS'merge_data/SHDU@2.jpg'
p4949
S'SHDU'
p4950
sS'merge_data/KAXN@1.jpg'
p4951
S'KAXN'
p4952
sS'merge_data/gctq@1.jpg'
p4953
S'gctq'
p4954
sS'merge_data/DZQc@1.jpg'
p4955
S'DZQc'
p4956
sS'merge_data/EBXN@3.jpg'
p4957
S'EBXN'
p4958
sS'merge_data/8UQF@1.jpg'
p4959
S'8UQF'
p4960
sS'merge_data/8UKF@5.jpg'
p4961
S'8UKF'
p4962
sS'merge_data/SG5R@4.jpg'
p4963
S'SG5R'
p4964
sS'merge_data/7TQE@3.jpg'
p4965
S'7TQE'
p4966
sS'merge_data/G4TF@2.jpg'
p4967
S'G4TF'
p4968
sS'merge_data/QC3P@3.jpg'
p4969
S'QC3P'
p4970
sS'merge_data/H5UG@2.jpg'
p4971
S'H5UG'
p4972
sS'merge_data/VRG4@1.jpg'
p4973
S'VRG4'
p4974
sS'merge_data/7whe@2.jpg'
p4975
S'7whe'
p4976
sS'merge_data/WN9V@1.jpg'
p4977
S'WN9V'
p4978
sS'merge_data/SHDU@1.jpg'
p4979
S'SHDU'
p4980
sS'merge_data/JFWS@1.jpg'
p4981
S'JFWS'
p4982
sS'merge_data/Sd5r@2.jpg'
p4983
S'Sd5r'
p4984
sS'merge_data/6vg7@1.jpg'
p4985
S'6vg7'
p4986
sS'merge_data/GXTE@1.jpg'
p4987
S'GXTE'
p4988
sS'merge_data/ZMBY@2.jpg'
p4989
S'ZMBY'
p4990
sS'merge_data/3PDA@9.jpg'
p4991
S'3PDA'
p4992
sS'merge_data/9YMG@2.jpg'
p4993
S'9YMG'
p4994
sS'merge_data/kaxn@3.jpg'
p4995
S'kaxn'
p4996
sS'merge_data/2ncz@1.jpg'
p4997
S'2ncz'
p4998
sS'merge_data/ZWM8@5.jpg'
p4999
S'ZWM8'
p5000
sS'merge_data/PB2N@4.jpg'
p5001
S'PB2N'
p5002
sS'merge_data/yVK7@1.jpg'
p5003
S'yVK7'
p5004
sS'merge_data/AWN9@4.jpg'
p5005
S'AWN9'
p5006
sS'merge_data/XNHZ@1.jpg'
p5007
S'XNHZ'
p5008
sS'merge_data/azmc@1.jpg'
p5009
S'azmc'
p5010
sS'merge_data/QFBS@1.jpg'
p5011
S'QFBS'
p5012
sS'merge_data/ymgx@1.jpg'
p5013
S'ymgx'
p5014
sS'merge_data/PE2n@1.jpg'
p5015
S'PE2n'
p5016
sS'merge_data/QB2N@2.jpg'
p5017
S'QB2N'
p5018
sS'merge_data/SEAR@4.jpg'
p5019
S'SEAR'
p5020
sS'merge_data/QE3P@2.jpg'
p5021
S'QE3P'
p5022
sS'merge_data/7wh9@1.jpg'
p5023
S'7wh9'
p5024
sS'merge_data/darm@1.jpg'
p5025
S'darm'
p5026
sS'merge_data/YUJ7@3.jpg'
p5027
S'YUJ7'
p5028
sS'merge_data/4rMB@1.jpg'
p5029
S'4rMB'
p5030
sS'merge_data/QKAX@2.jpg'
p5031
S'QKAX'
p5032
sS'merge_data/XNHY@1.jpg'
p5033
S'XNHY'
p5034
sS'merge_data/RM9Y@4.jpg'
p5035
S'RM9Y'
p5036
sS'merge_data/ZQM8@3.jpg'
p5037
S'ZQM8'
p5038
sS'merge_data/PEAW@1.jpg'
p5039
S'PEAW'
p5040
sS'merge_data/3sda@1.jpg'
p5041
S'3sda'
p5042
sS'merge_data/6SGD@3.jpg'
p5043
S'6SGD'
p5044
sS'merge_data/HD2R@1.jpg'
p5045
S'HD2R'
p5046
sS'merge_data/7uqe@1.jpg'
p5047
S'7uqe'
p5048
sS'merge_data/JAWM@4.jpg'
p5049
S'JAWM'
p5050
sS'merge_data/Qc3p@1.jpg'
p5051
S'Qc3p'
p5052
sS'merge_data/HDZR@1.jpg'
p5053
S'HDZR'
p5054
sS'merge_data/rfct@1.jpg'
p5055
S'rfct'
p5056
sS'merge_data/RMCY@2.jpg'
p5057
S'RMCY'
p5058
sS'merge_data/mbxu@1.jpg'
p5059
S'mbxu'
p5060
sS'merge_data/F3SE@1.jpg'
p5061
S'F3SE'
p5062
sS'merge_data/vgdu@1.jpg'
p5063
S'vgdu'
p5064
sS'merge_data/YQK7@2.jpg'
p5065
S'YQK7'
p5066
sS'merge_data/QB2P@2.jpg'
p5067
S'QB2P'
p5068
sS'merge_data/JZWH@1.jpg'
p5069
S'JZWH'
p5070
sS'merge_data/g7tp@1.jpg'
p5071
S'g7tp'
p5072
sS'merge_data/PB2N@7.jpg'
p5073
S'PB2N'
p5074
sS'merge_data/aznh@2.jpg'
p5075
S'aznh'
p5076
sS'merge_data/6wh8@1.jpg'
p5077
S'6wh8'
p5078
sS'merge_data/A2NC@1.jpg'
p5079
S'A2NC'
p5080
sS'merge_data/BXJ9@1.jpg'
p5081
S'BXJ9'
p5082
sS'merge_data/gxuj@1.jpg'
p5083
S'gxuj'
p5084
sS'merge_data/6sND@1.jpg'
p5085
S'6sND'
p5086
sS'merge_data/RF3Q@2.jpg'
p5087
S'RF3Q'
p5088
sS'merge_data/CYVK@1.jpg'
p5089
S'CYVK'
p5090
sS'merge_data/AWNH@1.jpg'
p5091
S'AWNH'
p5092
sS'merge_data/YKAX@3.jpg'
p5093
S'YKAX'
p5094
sS'merge_data/AWMG@1.jpg'
p5095
S'AWMG'
p5096
sS'merge_data/MGXU@3.jpg'
p5097
S'MGXU'
p5098
sS'merge_data/ZRCY@1.jpg'
p5099
S'ZRCY'
p5100
sS'merge_data/SH5U@1.jpg'
p5101
S'SH5U'
p5102
sS'merge_data/XNAZ@4.jpg'
p5103
S'XNAZ'
p5104
sS'merge_data/GDZQ@4.jpg'
p5105
S'GDZQ'
p5106
sS'merge_data/H5SG@2.jpg'
p5107
S'H5SG'
p5108
sS'merge_data/AWM8@2.jpg'
p5109
S'AWM8'
p5110
sS'merge_data/evsg@1.jpg'
p5111
S'evsg'
p5112
sS'merge_data/j6th@1.jpg'
p5113
S'j6th'
p5114
sS'merge_data/WHDU@1.jpg'
p5115
S'WHDU'
p5116
sS'merge_data/7the@1.jpg'
p5117
S'7the'
p5118
sS'merge_data/H5Vg@1.jpg'
p5119
S'H5Vg'
p5120
sS'merge_data/ymgx@2.jpg'
p5121
S'ymgx'
p5122
sS'merge_data/3QEA@1.jpg'
p5123
S'3QEA'
p5124
sS'merge_data/GXUF@4.jpg'
p5125
S'GXUF'
p5126
sS'merge_data/8VRF@2.jpg'
p5127
S'8VRF'
p5128
sS'merge_data/rncy@2.jpg'
p5129
S'rncy'
p5130
sS'merge_data/6SGD@1.jpg'
p5131
S'6SGD'
p5132
sS'merge_data/RMBX@1.jpg'
p5133
S'RMBX'
p5134
sS'merge_data/YUK7@1.jpg'
p5135
S'YUK7'
p5136
sS'merge_data/k7uj@2.jpg'
p5137
S'k7uj'
p5138
sS'merge_data/SD4R@3.jpg'
p5139
S'SD4R'
p5140
sS'merge_data/CZQb@2.jpg'
p5141
S'CZQb'
p5142
sS'merge_data/sd4r@1.jpg'
p5143
S'sd4r'
p5144
sS'merge_data/AWM9@1.jpg'
p5145
S'AWM9'
p5146
sS'merge_data/SPDZ@3.jpg'
p5147
S'SPDZ'
p5148
sS'merge_data/hyuj@1.jpg'
p5149
S'hyuj'
p5150
sS'merge_data/CTQE@2.jpg'
p5151
S'CTQE'
p5152
sS'merge_data/D4QM@3.jpg'
p5153
S'D4QM'
p5154
sS'merge_data/E3PD@2.jpg'
p5155
S'E3PD'
p5156
sS'merge_data/XNJZ@1.jpg'
p5157
S'XNJZ'
p5158
sS'merge_data/K8XJ@2.jpg'
p5159
S'K8XJ'
p5160
sS'merge_data/CTQB@2.jpg'
p5161
S'CTQB'
p5162
sS'merge_data/rf3s@1.jpg'
p5163
S'rf3s'
p5164
sS'merge_data/EASN@1.jpg'
p5165
S'EASN'
p5166
sS'merge_data/7thE@1.jpg'
p5167
S'7thE'
p5168
sS'merge_data/SE5R@2.jpg'
p5169
S'SE5R'
p5170
sS'merge_data/WM9Y@2.jpg'
p5171
S'WM9Y'
p5172
sS'merge_data/8ujf@2.jpg'
p5173
S'8ujf'
p5174
sS'merge_data/4tfb@1.jpg'
p5175
S'4tfb'
p5176
sS'merge_data/QBYP@1.jpg'
p5177
S'QBYP'
p5178
sS'merge_data/WMGX@1.jpg'
p5179
S'WMGX'
p5180
sS'merge_data/VK7U@1.jpg'
p5181
S'VK7U'
p5182
sS'merge_data/D4RF@5.jpg'
p5183
S'D4RF'
p5184
sS'merge_data/RM8X@1.jpg'
p5185
S'RM8X'
p5186
sS'merge_data/MBYP@3.jpg'
p5187
S'MBYP'
p5188
sS'merge_data/GCYP@1.jpg'
p5189
S'GCYP'
p5190
sS'merge_data/K8UJ@6.jpg'
p5191
S'K8UJ'
p5192
sS'merge_data/D5RM@1.jpg'
p5193
S'D5RM'
p5194
sS'merge_data/d4qk@1.jpg'
p5195
S'd4qk'
p5196
sS'merge_data/3PEA@3.jpg'
p5197
S'3PEA'
p5198
sS'merge_data/VKGX@1.jpg'
p5199
S'VKGX'
p5200
sS'merge_data/ypax@2.jpg'
p5201
S'ypax'
p5202
sS'merge_data/f6sh@1.jpg'
p5203
S'f6sh'
p5204
sS'merge_data/BYPJ@2.jpg'
p5205
S'BYPJ'
p5206
sS'merge_data/KG4T@2.jpg'
p5207
S'KG4T'
p5208
sS'merge_data/TPA2@2.jpg'
p5209
S'TPA2'
p5210
sS'merge_data/aznh@1.jpg'
p5211
S'aznh'
p5212
sS'merge_data/JAWM@5.jpg'
p5213
S'JAWM'
p5214
sS'merge_data/ARM9@2.jpg'
p5215
S'ARM9'
p5216
sS'merge_data/PAXN@1.jpg'
p5217
S'PAXN'
p5218
sS'merge_data/7tjE@1.jpg'
p5219
S'7tjE'
p5220
sS'merge_data/bxja@1.jpg'
p5221
S'bxja'
p5222
sS'merge_data/vk8u@1.jpg'
p5223
S'vk8u'
p5224
sS'merge_data/NCYQ@1.jpg'
p5225
S'NCYQ'
p5226
sS'merge_data/8UKF@2.jpg'
p5227
S'8UKF'
p5228
sS'merge_data/wth5@1.jpg'
p5229
S'wth5'
p5230
sS'merge_data/NAWM@5.jpg'
p5231
S'NAWM'
p5232
sS'merge_data/YUJ6@2.jpg'
p5233
S'YUJ6'
p5234
sS'merge_data/jE2R@1.jpg'
p5235
S'jE2R'
p5236
sS'merge_data/THD2@3.jpg'
p5237
S'THD2'
p5238
sS'merge_data/kf4t@2.jpg'
p5239
S'kf4t'
p5240
sS'merge_data/H9VK@2.jpg'
p5241
S'H9VK'
p5242
sS'merge_data/arn9@1.jpg'
p5243
S'arn9'
p5244
sS'merge_data/J9VS@2.jpg'
p5245
S'J9VS'
p5246
sS'merge_data/YVK7@2.jpg'
p5247
S'YVK7'
p5248
sS'merge_data/HDUR@1.jpg'
p5249
S'HDUR'
p5250
sS'merge_data/cypK@1.jpg'
p5251
S'cypK'
p5252
sS'merge_data/G5RF@3.jpg'
p5253
S'G5RF'
p5254
sS'merge_data/DZQM@6.jpg'
p5255
S'DZQM'
p5256
sS'merge_data/cykb@1.jpg'
p5257
S'cykb'
p5258
sS'merge_data/BXNA@2.jpg'
p5259
S'BXNA'
p5260
sS'merge_data/UJFW@4.jpg'
p5261
S'UJFW'
p5262
sS'merge_data/NAZM@2.jpg'
p5263
S'NAZM'
p5264
sS'merge_data/2RC3@2.jpg'
p5265
S'2RC3'
p5266
sS'merge_data/3PDA@5.jpg'
p5267
S'3PDA'
p5268
sS'merge_data/H5VG@1.jpg'
p5269
S'H5VG'
p5270
sS'merge_data/9YkG@1.jpg'
p5271
S'9YkG'
p5272
sS'merge_data/3PJA@2.jpg'
p5273
S'3PJA'
p5274
sS'merge_data/WM8V@1.jpg'
p5275
S'WM8V'
p5276
sS'merge_data/PJZV@4.jpg'
p5277
S'PJZV'
p5278
sS'merge_data/DZMB@1.jpg'
p5279
S'DZMB'
p5280
sS'merge_data/cypb@1.jpg'
p5281
S'cypb'
p5282
s.